(lp0
ccopy_reg
_reconstructor
p1
(cs2sphere.sphere
CellId
p2
c__builtin__
object
p3
Ntp4
Rp5
(dp6
S'_CellId__id'
p7
L936748722493063168L
sbag1
(g2
g3
Ntp8
Rp9
(dp10
g7
L9930437178351943680L
sbag1
(g2
g3
Ntp11
Rp12
(dp13
g7
L6052837899185946624L
sbag1
(g2
g3
Ntp14
Rp15
(dp16
g7
L9817847187667681280L
sbag1
(g2
g3
Ntp17
Rp18
(dp19
g7
L5220797868029247488L
sbag1
(g2
g3
Ntp20
Rp21
(dp22
g7
L1351079888211148800L
sbag1
(g2
g3
Ntp23
Rp24
(dp25
g7
L3746994889972252672L
sbag1
(g2
g3
Ntp26
Rp27
(dp28
g7
L9727775195120271360L
sbag1
(g2
g3
Ntp29
Rp30
(dp31
g7
L5242189966259257344L
sbag1
(g2
g3
Ntp32
Rp33
(dp34
g7
L10664523917613334528L
sbag1
(g2
g3
Ntp35
Rp36
(dp37
g7
L5223049667842932736L
sbag1
(g2
g3
Ntp38
Rp39
(dp40
g7
L5183643171103440896L
sbag1
(g2
g3
Ntp41
Rp42
(dp43
g7
L1387108685230112768L
sbag1
(g2
g3
Ntp44
Rp45
(dp46
g7
L9263904433501110272L
sbag1
(g2
g3
Ntp47
Rp48
(dp49
g7
L5156621573339217920L
sbag1
(g2
g3
Ntp50
Rp51
(dp52
g7
L8070450532247928832L
sbag1
(g2
g3
Ntp53
Rp54
(dp55
g7
L9583660007044415488L
sbag1
(g2
g3
Ntp56
Rp57
(dp58
g7
L9939444377606684672L
sbag1
(g2
g3
Ntp59
Rp60
(dp61
g7
L5192650370358181888L
sbag1
(g2
g3
Ntp62
Rp63
(dp64
g7
L5210664768867663872L
sbag1
(g2
g3
Ntp65
Rp66
(dp67
g7
L10304235947423694848L
sbag1
(g2
g3
Ntp68
Rp69
(dp70
g7
L1224979098644774912L
sbag1
(g2
g3
Ntp71
Rp72
(dp73
g7
L1513209474796486656L
sbag1
(g2
g3
Ntp74
Rp75
(dp76
g7
L288230376151711744L
sbag1
(g2
g3
Ntp77
Rp78
(dp79
g7
L9921429979097202688L
sbag1
(g2
g3
Ntp80
Rp81
(dp82
g7
L9853875984686645248L
sbag1
(g2
g3
Ntp83
Rp84
(dp85
g7
L10160120759347838976L
sbag1
(g2
g3
Ntp86
Rp87
(dp88
g7
L5548434740920451072L
sbag1
(g2
g3
Ntp89
Rp90
(dp91
g7
L9281918832010592256L
sbag1
(g2
g3
Ntp92
Rp93
(dp94
g7
L5062045981164437504L
sbag1
(g2
g3
Ntp95
Rp96
(dp97
g7
L5165628772593958912L
sbag1
(g2
g3
Ntp98
Rp99
(dp100
g7
L5174635971848699904L
sbag1
(g2
g3
Ntp101
Rp102
(dp103
g7
L5134103575202365440L
sbag1
(g2
g3
Ntp104
Rp105
(dp106
g7
L9439544818968559616L
sbag1
(g2
g3
Ntp107
Rp108
(dp109
g7
L5692549928996306944L
sbag1
(g2
g3
Ntp110
Rp111
(dp112
g7
L2017612633061982208L
sbag1
(g2
g3
Ntp113
Rp114
(dp115
g7
L5314247560297185280L
sbag1
(g2
g3
Ntp116
Rp117
(dp118
g7
L5278218763278221312L
sbag1
(g2
g3
Ntp119
Rp120
(dp121
g7
L10016005571271983104L
sbag1
(g2
g3
Ntp122
Rp123
(dp124
g7
L5201657569612922880L
sbag1
(g2
g3
Ntp125
Rp126
(dp127
g7
L12682136550675316736L
sbag1
(g2
g3
Ntp128
Rp129
(dp130
g7
L5216294268401876992L
sbag1
(g2
g3
Ntp131
Rp132
(dp133
g7
L5218546068215562240L
sbag1
(g2
g3
Ntp134
Rp135
(dp136
g7
L11240984669916758016L
sbag1
(g2
g3
Ntp137
Rp138
(dp139
g7
L1423137482249076736L
sbag1
(g2
g3
Ntp140
Rp141
(dp142
g7
L9889904781705609216L
sbag1
(g2
g3
Ntp143
Rp144
(dp145
g7
L1657324662872342528L
sbag1
(g2
g3
Ntp146
Rp147
(dp148
g7
L9912422779842461696L
sbag1
(g2
g3
Ntp149
Rp150
(dp151
g7
L6629298651489370112L
sbag1
(g2
g3
Ntp152
Rp153
(dp154
g7
L4683743612465315840L
sbag1
(g2
g3
Ntp155
Rp156
(dp157
g7
L1315051091192184832L
sbag1
(g2
g3
Ntp158
Rp159
(dp160
g7
L4827858800541171712L
sbag1
(g2
g3
Ntp161
Rp162
(dp163
g7
L9290926031265333248L
sbag1
(g2
g3
Ntp164
Rp165
(dp166
g7
L9241386435364257792L
sbag1
(g2
g3
Ntp167
Rp168
(dp169
g7
L9349472826421149696L
sbag1
(g2
g3
Ntp170
Rp171
(dp172
g7
L9313444029402185728L
sbag1
(g2
g3
Ntp173
Rp174
(dp175
g7
L4971973988617027584L
sbag1
(g2
g3
Ntp176
Rp177
(dp178
g7
L9272911632755851264L
sbag1
(g2
g3
Ntp179
Rp180
(dp181
g7
L5404319552844595200L
sbag1
(g2
g3
Ntp182
Rp183
(dp184
g7
L2594073385365405696L
sbag1
(g2
g3
Ntp185
Rp186
(dp187
g7
L3170534137668829184L
sbag1
(g2
g3
Ntp188
Rp189
(dp190
g7
L4323455642275676160L
sbag1
(g2
g3
Ntp191
Rp192
(dp193
g7
L648518346341351424L
sbag1
(g2
g3
Ntp194
Rp195
(dp196
g7
L792633534417207296L
sbag1
(g2
g3
Ntp197
Rp198
(dp199
g7
L5098074778183401472L
sbag1
(g2
g3
Ntp200
Rp201
(dp202
g7
L1080863910568919040L
sba.