(lp0
ccopy_reg
_reconstructor
p1
(cs2sphere.sphere
CellId
p2
c__builtin__
object
p3
Ntp4
Rp5
(dp6
S'_CellId__id'
p7
L5066549580791808000L
sbag1
(g2
g3
Ntp8
Rp9
(dp10
g7
L3765009288481734656L
sbag1
(g2
g3
Ntp11
Rp12
(dp13
g7
L9262778533594267648L
sbag1
(g2
g3
Ntp14
Rp15
(dp16
g7
L9278541132290064384L
sbag1
(g2
g3
Ntp17
Rp18
(dp19
g7
L5221365216029179904L
sbag1
(g2
g3
Ntp20
Rp21
(dp22
g7
L9678235599219195904L
sbag1
(g2
g3
Ntp23
Rp24
(dp25
g7
L5530420342410969088L
sbag1
(g2
g3
Ntp26
Rp27
(dp28
g7
L9285296531731120128L
sbag1
(g2
g3
Ntp29
Rp30
(dp31
g7
L5222768192866222080L
sbag1
(g2
g3
Ntp32
Rp33
(dp34
g7
L5980780305148018688L
sbag1
(g2
g3
Ntp35
Rp36
(dp37
g7
L5150992073805004800L
sbag1
(g2
g3
Ntp38
Rp39
(dp40
g7
L9803210488878727168L
sbag1
(g2
g3
Ntp41
Rp42
(dp43
g7
L1355583487838519296L
sbag1
(g2
g3
Ntp44
Rp45
(dp46
g7
L9781818390648717312L
sbag1
(g2
g3
Ntp47
Rp48
(dp49
g7
L9936066677886156800L
sbag1
(g2
g3
Ntp50
Rp51
(dp52
g7
L5098074778183401472L
sbag1
(g2
g3
Ntp53
Rp54
(dp55
g7
L5171539747104882688L
sbag1
(g2
g3
Ntp56
Rp57
(dp58
g7
L5172102697058304000L
sbag1
(g2
g3
Ntp59
Rp60
(dp61
g7
L950259521375174656L
sbag1
(g2
g3
Ntp62
Rp63
(dp64
g7
L968273919884656640L
sbag1
(g2
g3
Ntp65
Rp66
(dp67
g7
L7205759403792793600L
sbag1
(g2
g3
Ntp68
Rp69
(dp70
g7
L1343198588863250432L
sbag1
(g2
g3
Ntp71
Rp72
(dp73
g7
L5155495673432375296L
sbag1
(g2
g3
Ntp74
Rp75
(dp76
g7
L5159999273059745792L
sbag1
(g2
g3
Ntp77
Rp78
(dp79
g7
L5178013671569227776L
sbag1
(g2
g3
Ntp80
Rp81
(dp82
g7
L1382323610626031616L
sbag1
(g2
g3
Ntp83
Rp84
(dp85
g7
L9922555879004045312L
sbag1
(g2
g3
Ntp86
Rp87
(dp88
g7
L9261019314989826048L
sbag1
(g2
g3
Ntp89
Rp90
(dp91
g7
L5120592776320253952L
sbag1
(g2
g3
Ntp92
Rp93
(dp94
g7
L5180947168592134144L
sbag1
(g2
g3
Ntp95
Rp96
(dp97
g7
L1495195076287004672L
sbag1
(g2
g3
Ntp98
Rp99
(dp100
g7
L882705526964617216L
sbag1
(g2
g3
Ntp101
Rp102
(dp103
g7
L9280792932103749632L
sbag1
(g2
g3
Ntp104
Rp105
(dp106
g7
L9583660007044415488L
sbag1
(g2
g3
Ntp107
Rp108
(dp109
g7
L9931563078258786304L
sbag1
(g2
g3
Ntp110
Rp111
(dp112
g7
L1385982785323270144L
sbag1
(g2
g3
Ntp113
Rp114
(dp115
g7
L5219953443099115520L
sbag1
(g2
g3
Ntp116
Rp117
(dp118
g7
L5164502872687116288L
sbag1
(g2
g3
Ntp119
Rp120
(dp121
g7
L941252322120433664L
sbag1
(g2
g3
Ntp122
Rp123
(dp124
g7
L9840365185804533760L
sbag1
(g2
g3
Ntp125
Rp126
(dp127
g7
L9867386783568756736L
sbag1
(g2
g3
Ntp128
Rp129
(dp130
g7
L10304235947423694848L
sbag1
(g2
g3
Ntp131
Rp132
(dp133
g7
L9812217688133468160L
sbag1
(g2
g3
Ntp134
Rp135
(dp136
g7
L3873095679538626560L
sbag1
(g2
g3
Ntp137
Rp138
(dp139
g7
L8935141660703064064L
sbag1
(g2
g3
Ntp140
Rp141
(dp142
g7
L7692148163548807168L
sbag1
(g2
g3
Ntp143
Rp144
(dp145
g7
L7728176960567771136L
sbag1
(g2
g3
Ntp146
Rp147
(dp148
g7
L288230376151711744L
sbag1
(g2
g3
Ntp149
Rp150
(dp151
g7
L4251398048237748224L
sbag1
(g2
g3
Ntp152
Rp153
(dp154
g7
L4683743612465315840L
sbag1
(g2
g3
Ntp155
Rp156
(dp157
g7
L10880696699727118336L
sbag1
(g2
g3
Ntp158
Rp159
(dp160
g7
L5221079343005958144L
sbag1
(g2
g3
Ntp161
Rp162
(dp163
g7
L9267282133221638144L
sbag1
(g2
g3
Ntp164
Rp165
(dp166
g7
L6093651770808991744L
sbag1
(g2
g3
Ntp167
Rp168
(dp169
g7
L6094777670715834368L
sbag1
(g2
g3
Ntp170
Rp171
(dp172
g7
L1391612284857483264L
sbag1
(g2
g3
Ntp173
Rp174
(dp175
g7
L10718567113141780480L
sbag1
(g2
g3
Ntp176
Rp177
(dp178
g7
L3584865303386914816L
sbag1
(g2
g3
Ntp179
Rp180
(dp181
g7
L9926595209846587392L
sbag1
(g2
g3
Ntp182
Rp183
(dp184
g7
L9741285994002382848L
sbag1
(g2
g3
Ntp185
Rp186
(dp187
g7
L5227553267470303232L
sbag1
(g2
g3
Ntp188
Rp189
(dp190
g7
L9816721287760838656L
sbag1
(g2
g3
Ntp191
Rp192
(dp193
g7
L6089992596111753216L
sbag1
(g2
g3
Ntp194
Rp195
(dp196
g7
L6096747995552808960L
sbag1
(g2
g3
Ntp197
Rp198
(dp199
g7
L5180964760778178560L
sbag1
(g2
g3
Ntp200
Rp201
(dp202
g7
L5210664768867663872L
sbag1
(g2
g3
Ntp203
Rp204
(dp205
g7
L5836665117072162816L
sbag1
(g2
g3
Ntp206
Rp207
(dp208
g7
L5221448778912890880L
sbag1
(g2
g3
Ntp209
Rp210
(dp211
g7
L9933814878072471552L
sbag1
(g2
g3
Ntp212
Rp213
(dp214
g7
L9831357986549792768L
sbag1
(g2
g3
Ntp215
Rp216
(dp217
g7
L5170976797151461376L
sbag1
(g2
g3
Ntp218
Rp219
(dp220
g7
L1383730985509584896L
sbag1
(g2
g3
Ntp221
Rp222
(dp223
g7
L7566047373982433280L
sbag1
(g2
g3
Ntp224
Rp225
(dp226
g7
L7854277750134145024L
sbag1
(g2
g3
Ntp227
Rp228
(dp229
g7
L9822350787295051776L
sbag1
(g2
g3
Ntp230
Rp231
(dp232
g7
L5223894092773064704L
sbag1
(g2
g3
Ntp233
Rp234
(dp235
g7
L5192650370358181888L
sbag1
(g2
g3
Ntp236
Rp237
(dp238
g7
L5169006472314486784L
sbag1
(g2
g3
Ntp239
Rp240
(dp241
g7
L2017612633061982208L
sbag1
(g2
g3
Ntp242
Rp243
(dp244
g7
L5184769071010283520L
sbag1
(g2
g3
Ntp245
Rp246
(dp247
g7
L5187020870823968768L
sbag1
(g2
g3
Ntp248
Rp249
(dp250
g7
L9858379584314015744L
sbag1
(g2
g3
Ntp251
Rp252
(dp253
g7
L5221374012122202112L
sbag1
(g2
g3
Ntp254
Rp255
(dp256
g7
L5216294268401876992L
sbag1
(g2
g3
Ntp257
Rp258
(dp259
g7
L9709760796610789376L
sbag1
(g2
g3
Ntp260
Rp261
(dp262
g7
L5218546068215562240L
sbag1
(g2
g3
Ntp263
Rp264
(dp265
g7
L5221391604308246528L
sbag1
(g2
g3
Ntp266
Rp267
(dp268
g7
L1224979098644774912L
sbag1
(g2
g3
Ntp269
Rp270
(dp271
g7
L1345450388676935680L
sbag1
(g2
g3
Ntp272
Rp273
(dp274
g7
L5146488474177634304L
sbag1
(g2
g3
Ntp275
Rp276
(dp277
g7
L5148740273991319552L
sbag1
(g2
g3
Ntp278
Rp279
(dp280
g7
L9889904781705609216L
sbag1
(g2
g3
Ntp281
Rp282
(dp283
g7
L3963167672086036480L
sbag1
(g2
g3
Ntp284
Rp285
(dp286
g7
L955889020909387776L
sbag1
(g2
g3
Ntp287
Rp288
(dp289
g7
L5157747473246060544L
sbag1
(g2
g3
Ntp290
Rp291
(dp292
g7
L962644420350443520L
sbag1
(g2
g3
Ntp293
Rp294
(dp295
g7
L5246693565886627840L
sbag1
(g2
g3
Ntp296
Rp297
(dp298
g7
L9927903903561547776L
sbag1
(g2
g3
Ntp299
Rp300
(dp301
g7
L4107282860161892352L
sbag1
(g2
g3
Ntp302
Rp303
(dp304
g7
L4539628424389459968L
sbag1
(g2
g3
Ntp305
Rp306
(dp307
g7
L9750293193257123840L
sbag1
(g2
g3
Ntp308
Rp309
(dp310
g7
L9669228399964454912L
sbag1
(g2
g3
Ntp311
Rp312
(dp313
g7
L9926215053701283840L
sbag1
(g2
g3
Ntp314
Rp315
(dp316
g7
L9265030333407952896L
sbag1
(g2
g3
Ntp317
Rp318
(dp319
g7
L1381197710719188992L
sbag1
(g2
g3
Ntp320
Rp321
(dp322
g7
L6629298651489370112L
sbag1
(g2
g3
Ntp323
Rp324
(dp325
g7
L5181039527568867328L
sbag1
(g2
g3
Ntp326
Rp327
(dp328
g7
L1364590687093260288L
sbag1
(g2
g3
Ntp329
Rp330
(dp331
g7
L1373597886348001280L
sbag1
(g2
g3
Ntp332
Rp333
(dp334
g7
L10160120759347838976L
sbag1
(g2
g3
Ntp335
Rp336
(dp337
g7
L9260597102524760064L
sbag1
(g2
g3
Ntp338
Rp339
(dp340
g7
L4971973988617027584L
sbag1
(g2
g3
Ntp341
Rp342
(dp343
g7
L9260878577501470720L
sbag1
(g2
g3
Ntp344
Rp345
(dp346
g7
L6102377495087022080L
sbag1
(g2
g3
Ntp347
Rp348
(dp349
g7
L10790624707179708416L
sbag1
(g2
g3
Ntp350
Rp351
(dp352
g7
L3512807709348986880L
sbag1
(g2
g3
Ntp353
Rp354
(dp355
g7
L9926594110334959616L
sbag1
(g2
g3
Ntp356
Rp357
(dp358
g7
L5138607174829735936L
sbag1
(g2
g3
Ntp359
Rp360
(dp361
g7
L5566449139429933056L
sbag1
(g2
g3
Ntp362
Rp363
(dp364
g7
L9926707634910527488L
sbag1
(g2
g3
Ntp365
Rp366
(dp367
g7
L3170534137668829184L
sbag1
(g2
g3
Ntp368
Rp369
(dp370
g7
L9926588887654727680L
sbag1
(g2
g3
Ntp371
Rp372
(dp373
g7
L5225301467656617984L
sbag1
(g2
g3
Ntp374
Rp375
(dp376
g7
L5152399448688558080L
sbag1
(g2
g3
Ntp377
Rp378
(dp379
g7
L5153525348595400704L
sbag1
(g2
g3
Ntp380
Rp381
(dp382
g7
L5180955964685156352L
sbag1
(g2
g3
Ntp383
Rp384
(dp385
g7
L5154088298548822016L
sbag1
(g2
g3
Ntp386
Rp387
(dp388
g7
L9938318477699842048L
sbag1
(g2
g3
Ntp389
Rp390
(dp391
g7
L9942822077327212544L
sbag1
(g2
g3
Ntp392
Rp393
(dp394
g7
L9926549305236127744L
sbag1
(g2
g3
Ntp395
Rp396
(dp397
g7
L1080863910568919040L
sbag1
(g2
g3
Ntp398
Rp399
(dp400
g7
L990791918021509120L
sbag1
(g2
g3
Ntp401
Rp402
(dp403
g7
L5173510071941857280L
sbag1
(g2
g3
Ntp404
Rp405
(dp406
g7
L918734323983581184L
sbag1
(g2
g3
Ntp407
Rp408
(dp409
g7
L9283044731917434880L
sbag1
(g2
g3
Ntp410
Rp411
(dp412
g7
L9439544818968559616L
sbag1
(g2
g3
Ntp413
Rp414
(dp415
g7
L5221413594540802048L
sbag1
(g2
g3
Ntp416
Rp417
(dp418
g7
L9926571295468683264L
sbag1
(g2
g3
Ntp419
Rp420
(dp421
g7
L9926580091561705472L
sbag1
(g2
g3
Ntp422
Rp423
(dp424
g7
L5692549928996306944L
sbag1
(g2
g3
Ntp425
Rp426
(dp427
g7
L5170413847198040064L
sbag1
(g2
g3
Ntp428
Rp429
(dp430
g7
L9929311278445101056L
sbag1
(g2
g3
Ntp431
Rp432
(dp433
g7
L5223331142819643392L
sbag1
(g2
g3
Ntp434
Rp435
(dp436
g7
L1379227385882214400L
sbag1
(g2
g3
Ntp437
Rp438
(dp439
g7
L9912422779842461696L
sbag1
(g2
g3
Ntp440
Rp441
(dp442
g7
L1423137482249076736L
sbag1
(g2
g3
Ntp443
Rp444
(dp445
g7
L5181321002545577984L
sbag1
(g2
g3
Ntp446
Rp447
(dp448
g7
L5314247560297185280L
sbag1
(g2
g3
Ntp449
Rp450
(dp451
g7
L1337569089329037312L
sbag1
(g2
g3
Ntp452
Rp453
(dp454
g7
L5222205242912800768L
sbag1
(g2
g3
Ntp455
Rp456
(dp457
g7
L9926600982282633216L
sbag1
(g2
g3
Ntp458
Rp459
(dp460
g7
L5278218763278221312L
sbag1
(g2
g3
Ntp461
Rp462
(dp463
g7
L5162251072873431040L
sbag1
(g2
g3
Ntp464
Rp465
(dp466
g7
L5220516393052536832L
sbag1
(g2
g3
Ntp467
Rp468
(dp469
g7
L5166754672500801536L
sbag1
(g2
g3
Ntp470
Rp471
(dp472
g7
L10448351135499550720L
sbag1
(g2
g3
Ntp473
Rp474
(dp475
g7
L10592466323575406592L
sbag1
(g2
g3
Ntp476
Rp477
(dp478
g7
L9290926031265333248L
sbag1
(g2
g3
Ntp479
Rp480
(dp481
g7
L7764205757586735104L
sbag1
(g2
g3
Ntp482
Rp483
(dp484
g7
L5201657569612922880L
sbag1
(g2
g3
Ntp485
Rp486
(dp487
g7
L5182517271196598272L
sbag1
(g2
g3
Ntp488
Rp489
(dp490
g7
L5221853399191912448L
sbag1
(g2
g3
Ntp491
Rp492
(dp493
g7
L9849372385059274752L
sbag1
(g2
g3
Ntp494
Rp495
(dp496
g7
L12682136550675316736L
sbag1
(g2
g3
Ntp497
Rp498
(dp499
g7
L648518346341351424L
sbag1
(g2
g3
Ntp500
Rp501
(dp502
g7
L2594073385365405696L
sbag1
(g2
g3
Ntp503
Rp504
(dp505
g7
L5221382808215224320L
sbag1
(g2
g3
Ntp506
Rp507
(dp508
g7
L3674937295934324736L
sbag1
(g2
g3
Ntp509
Rp510
(dp511
g7
L9926596584236122112L
sbag1
(g2
g3
Ntp512
Rp513
(dp514
g7
L9926598783259377664L
sbag1
(g2
g3
Ntp515
Rp516
(dp517
g7
L9809965888319782912L
sbag1
(g2
g3
Ntp518
Rp519
(dp520
g7
L1400619484112224256L
sbag1
(g2
g3
Ntp521
Rp522
(dp523
g7
L9814469487947153408L
sbag1
(g2
g3
Ntp524
Rp525
(dp526
g7
L6142909891733356544L
sbag1
(g2
g3
Ntp527
Rp528
(dp529
g7
L3801038085500698624L
sbag1
(g2
g3
Ntp530
Rp531
(dp532
g7
L11240984669916758016L
sbag1
(g2
g3
Ntp533
Rp534
(dp535
g7
L9926594660090773504L
sbag1
(g2
g3
Ntp536
Rp537
(dp538
g7
L8358680908399640576L
sbag1
(g2
g3
Ntp539
Rp540
(dp541
g7
L1347702188490620928L
sbag1
(g2
g3
Ntp542
Rp543
(dp544
g7
L5144236674363949056L
sbag1
(g2
g3
Ntp545
Rp546
(dp547
g7
L1349953988304306176L
sbag1
(g2
g3
Ntp548
Rp549
(dp550
g7
L6120391893596504064L
sbag1
(g2
g3
Ntp551
Rp552
(dp553
g7
L5179421046452781056L
sbag1
(g2
g3
Ntp554
Rp555
(dp556
g7
L5179983996406202368L
sbag1
(g2
g3
Ntp557
Rp558
(dp559
g7
L5180546946359623680L
sbag1
(g2
g3
Ntp560
Rp561
(dp562
g7
L7656119366529843200L
sbag1
(g2
g3
Ntp563
Rp564
(dp565
g7
L1315051091192184832L
sbag1
(g2
g3
Ntp566
Rp567
(dp568
g7
L1657324662872342528L
sbag1
(g2
g3
Ntp569
Rp570
(dp571
g7
L9807714088506097664L
sbag1
(g2
g3
Ntp572
Rp573
(dp574
g7
L958140820723073024L
sbag1
(g2
g3
Ntp575
Rp576
(dp577
g7
L960392620536758272L
sbag1
(g2
g3
Ntp578
Rp579
(dp580
g7
L5255700765141368832L
sbag1
(g2
g3
Ntp581
Rp582
(dp583
g7
L5237686366631886848L
sbag1
(g2
g3
Ntp584
Rp585
(dp586
g7
L9241386435364257792L
sbag1
(g2
g3
Ntp587
Rp588
(dp589
g7
L5048535182282326016L
sbag1
(g2
g3
Ntp590
Rp591
(dp592
g7
L9927340953608126464L
sbag1
(g2
g3
Ntp593
Rp594
(dp595
g7
L5057542381537067008L
sbag1
(g2
g3
Ntp596
Rp597
(dp598
g7
L5075556780046548992L
sbag1
(g2
g3
Ntp599
Rp600
(dp601
g7
L9687242798473936896L
sbag1
(g2
g3
Ntp602
Rp603
(dp604
g7
L4395513236313604096L
sbag1
(g2
g3
Ntp605
Rp606
(dp607
g7
L9800958689065041920L
sbag1
(g2
g3
Ntp608
Rp609
(dp610
g7
L5175761871755542528L
sbag1
(g2
g3
Ntp611
Rp612
(dp613
g7
L9805462288692412416L
sbag1
(g2
g3
Ntp614
Rp615
(dp616
g7
L9660221200709713920L
sbag1
(g2
g3
Ntp617
Rp618
(dp619
g7
L1567252670324932608L
sbag1
(g2
g3
Ntp620
Rp621
(dp622
g7
L9926619673980305408L
sbag1
(g2
g3
Ntp623
Rp624
(dp625
g7
L1380634760765767680L
sbag1
(g2
g3
Ntp626
Rp627
(dp628
g7
L4827858800541171712L
sbag1
(g2
g3
Ntp629
Rp630
(dp631
g7
L1381760660672610304L
sbag1
(g2
g3
Ntp632
Rp633
(dp634
g7
L9259682308850450432L
sbag1
(g2
g3
Ntp635
Rp636
(dp637
g7
L9260245258803871744L
sbag1
(g2
g3
Ntp638
Rp639
(dp640
g7
L9261371158710714368L
sbag1
(g2
g3
Ntp641
Rp642
(dp643
g7
L9924807678817730560L
sbag1
(g2
g3
Ntp644
Rp645
(dp646
g7
L7998392938210000896L
sbag1
(g2
g3
Ntp647
Rp648
(dp649
g7
L5181180265057222656L
sbag1
(g2
g3
Ntp650
Rp651
(dp652
g7
L9918052279376674816L
sbag1
(g2
g3
Ntp653
Rp654
(dp655
g7
L6070852297695428608L
sbag1
(g2
g3
Ntp656
Rp657
(dp658
g7
L6178938688752320512L
sbag1
(g2
g3
Ntp659
Rp660
(dp661
g7
L9920304079190360064L
sbag1
(g2
g3
Ntp662
Rp663
(dp664
g7
L9349472826421149696L
sbag1
(g2
g3
Ntp665
Rp666
(dp667
g7
L6094214720762413056L
sbag1
(g2
g3
Ntp668
Rp669
(dp670
g7
L6095340620669255680L
sbag1
(g2
g3
Ntp671
Rp672
(dp673
g7
L9260737840013115392L
sbag1
(g2
g3
Ntp674
Rp675
(dp676
g7
L9313444029402185728L
sbag1
(g2
g3
Ntp677
Rp678
(dp679
g7
L10682538316122816512L
sbag1
(g2
g3
Ntp680
Rp681
(dp682
g7
L6269010681299730432L
sbag1
(g2
g3
Ntp683
Rp684
(dp685
g7
L10754595910160744448L
sbag1
(g2
g3
Ntp686
Rp687
(dp688
g7
L5180846013522378752L
sbag1
(g2
g3
Ntp689
Rp690
(dp691
g7
L5180881197894467584L
sbag1
(g2
g3
Ntp692
Rp693
(dp694
g7
L5180916382266556416L
sbag1
(g2
g3
Ntp695
Rp696
(dp697
g7
L3476778912330022912L
sbag1
(g2
g3
Ntp698
Rp699
(dp700
g7
L9272911632755851264L
sbag1
(g2
g3
Ntp701
Rp702
(dp703
g7
L6111384694341763072L
sbag1
(g2
g3
Ntp704
Rp705
(dp706
g7
L9926593560579145728L
sbag1
(g2
g3
Ntp707
Rp708
(dp709
g7
L3548836506367950848L
sbag1
(g2
g3
Ntp710
Rp711
(dp712
g7
L5129599975574994944L
sbag1
(g2
g3
Ntp713
Rp714
(dp715
g7
L5494391545392005120L
sbag1
(g2
g3
Ntp716
Rp717
(dp718
g7
L5404319552844595200L
sbag1
(g2
g3
Ntp719
Rp720
(dp721
g7
L5602477936448897024L
sbag1
(g2
g3
Ntp722
Rp723
(dp724
g7
L9926989109887238144L
sbag1
(g2
g3
Ntp725
Rp726
(dp727
g7
L9732278794747641856L
sbag1
(g2
g3
Ntp728
Rp729
(dp730
g7
L5221483963284979712L
sbag1
(g2
g3
Ntp731
Rp732
(dp733
g7
L9759300392511864832L
sbag1
(g2
g3
Ntp734
Rp735
(dp736
g7
L9926848372398882816L
sbag1
(g2
g3
Ntp737
Rp738
(dp739
g7
L5229805067283988480L
sbag1
(g2
g3
Ntp740
Rp741
(dp742
g7
L5232056867097673728L
sbag1
(g2
g3
Ntp743
Rp744
(dp745
g7
L5180938372499111936L
sbag1
(g2
g3
Ntp746
Rp747
(dp748
g7
L10016005571271983104L
sbag1
(g2
g3
Ntp749
Rp750
(dp751
g7
L5221571924215201792L
sbag1
(g2
g3
Ntp752
Rp753
(dp754
g7
L5152962398641979392L
sbag1
(g2
g3
Ntp755
Rp756
(dp757
g7
L5221712661703557120L
sbag1
(g2
g3
Ntp758
Rp759
(dp760
g7
L1459166279268040704L
sbag1
(g2
g3
Ntp761
Rp762
(dp763
g7
L6092244395925438464L
sbag1
(g2
g3
Ntp764
Rp765
(dp766
g7
L3837066882519662592L
sbag1
(g2
g3
Ntp767
Rp768
(dp769
g7
L1531223873305968640L
sbag1
(g2
g3
Ntp770
Rp771
(dp772
g7
L792633534417207296L
sbag1
(g2
g3
Ntp773
Rp774
(dp775
g7
L9940570277513527296L
sbag1
(g2
g3
Ntp776
Rp777
(dp778
g7
L9926514120864038912L
sba.