(lp0
ccopy_reg
_reconstructor
p1
(cs2sphere.sphere
CellId
p2
c__builtin__
object
p3
Ntp4
Rp5
(dp6
S'_CellId__id'
p7
L9926595209846587392L
sbag1
(g2
g3
Ntp8
Rp9
(dp10
g7
L5221366040662900736L
sbag1
(g2
g3
Ntp11
Rp12
(dp13
g7
L5533798042131496960L
sbag1
(g2
g3
Ntp14
Rp15
(dp16
g7
L5192650370358181888L
sbag1
(g2
g3
Ntp17
Rp18
(dp19
g7
L5157747473246060544L
sbag1
(g2
g3
Ntp20
Rp21
(dp22
g7
L6090837021041885184L
sbag1
(g2
g3
Ntp23
Rp24
(dp25
g7
L1343378908770205696L
sbag1
(g2
g3
Ntp26
Rp27
(dp28
g7
L9674857899498668032L
sbag1
(g2
g3
Ntp29
Rp30
(dp31
g7
L5998794703657500672L
sbag1
(g2
g3
Ntp32
Rp33
(dp34
g7
L9926596584236122112L
sbag1
(g2
g3
Ntp35
Rp36
(dp37
g7
L9861757284034543616L
sbag1
(g2
g3
Ntp38
Rp39
(dp40
g7
L4107282860161892352L
sbag1
(g2
g3
Ntp41
Rp42
(dp43
g7
L5163658447756984320L
sbag1
(g2
g3
Ntp44
Rp45
(dp46
g7
L5154017929804644352L
sbag1
(g2
g3
Ntp47
Rp48
(dp49
g7
L1382446755928342528L
sbag1
(g2
g3
Ntp50
Rp51
(dp52
g7
L3751498489599623168L
sbag1
(g2
g3
Ntp53
Rp54
(dp55
g7
L9931563078258786304L
sbag1
(g2
g3
Ntp56
Rp57
(dp58
g7
L1356709387745361920L
sbag1
(g2
g3
Ntp59
Rp60
(dp61
g7
L5166754672500801536L
sbag1
(g2
g3
Ntp62
Rp63
(dp64
g7
L9263693327268577280L
sbag1
(g2
g3
Ntp65
Rp66
(dp67
g7
L5177169246639095808L
sbag1
(g2
g3
Ntp68
Rp69
(dp70
g7
L9278171696383131648L
sbag1
(g2
g3
Ntp71
Rp72
(dp73
g7
L7692148163548807168L
sbag1
(g2
g3
Ntp74
Rp75
(dp76
g7
L9927903903561547776L
sbag1
(g2
g3
Ntp77
Rp78
(dp79
g7
L955607545932677120L
sbag1
(g2
g3
Ntp80
Rp81
(dp82
g7
L1381197710719188992L
sbag1
(g2
g3
Ntp83
Rp84
(dp85
g7
L9923593817980665856L
sbag1
(g2
g3
Ntp86
Rp87
(dp88
g7
L6924495533314670592L
sbag1
(g2
g3
Ntp89
Rp90
(dp91
g7
L5226708842540171264L
sbag1
(g2
g3
Ntp92
Rp93
(dp94
g7
L7715510586615791616L
sbag1
(g2
g3
Ntp95
Rp96
(dp97
g7
L9812006581900935168L
sbag1
(g2
g3
Ntp98
Rp99
(dp100
g7
L5067675480698650624L
sbag1
(g2
g3
Ntp101
Rp102
(dp103
g7
L5525916742783598592L
sbag1
(g2
g3
Ntp104
Rp105
(dp106
g7
L9583660007044415488L
sbag1
(g2
g3
Ntp107
Rp108
(dp109
g7
L9831357986549792768L
sbag1
(g2
g3
Ntp110
Rp111
(dp112
g7
L5962765906638536704L
sbag1
(g2
g3
Ntp113
Rp114
(dp115
g7
L7854277750134145024L
sbag1
(g2
g3
Ntp116
Rp117
(dp118
g7
L5223894092773064704L
sbag1
(g2
g3
Ntp119
Rp120
(dp121
g7
L2017612633061982208L
sbag1
(g2
g3
Ntp122
Rp123
(dp124
g7
L5156340098362507264L
sbag1
(g2
g3
Ntp125
Rp126
(dp127
g7
L5222838561610399744L
sbag1
(g2
g3
Ntp128
Rp129
(dp130
g7
L5222979299098755072L
sbag1
(g2
g3
Ntp131
Rp132
(dp133
g7
L9285578006707830784L
sbag1
(g2
g3
Ntp134
Rp135
(dp136
g7
L9803843807576326144L
sbag1
(g2
g3
Ntp137
Rp138
(dp139
g7
L9804266020041392128L
sbag1
(g2
g3
Ntp140
Rp141
(dp142
g7
L5084563979301289984L
sbag1
(g2
g3
Ntp143
Rp144
(dp145
g7
L5171891590825771008L
sbag1
(g2
g3
Ntp146
Rp147
(dp148
g7
L1490691476659634176L
sbag1
(g2
g3
Ntp149
Rp150
(dp151
g7
L5168162047384354816L
sbag1
(g2
g3
Ntp152
Rp153
(dp154
g7
L6093387888018325504L
sbag1
(g2
g3
Ntp155
Rp156
(dp157
g7
L9669228399964454912L
sbag1
(g2
g3
Ntp158
Rp159
(dp160
g7
L3674937295934324736L
sbag1
(g2
g3
Ntp161
Rp162
(dp163
g7
L9267282133221638144L
sbag1
(g2
g3
Ntp164
Rp165
(dp166
g7
L6094777670715834368L
sbag1
(g2
g3
Ntp167
Rp168
(dp169
g7
L5180949642493296640L
sbag1
(g2
g3
Ntp170
Rp171
(dp172
g7
L10790624707179708416L
sbag1
(g2
g3
Ntp173
Rp174
(dp175
g7
L9260949770879369216L
sbag1
(g2
g3
Ntp176
Rp177
(dp178
g7
L72057594037927936L
sbag1
(g2
g3
Ntp179
Rp180
(dp181
g7
L5138607174829735936L
sbag1
(g2
g3
Ntp182
Rp183
(dp184
g7
L9741285994002382848L
sbag1
(g2
g3
Ntp185
Rp186
(dp187
g7
L5171750853337415680L
sbag1
(g2
g3
Ntp188
Rp189
(dp190
g7
L9935855571653623808L
sbag1
(g2
g3
Ntp191
Rp192
(dp193
g7
L5221390504796618752L
sbag1
(g2
g3
Ntp194
Rp195
(dp196
g7
L5063171881071280128L
sbag1
(g2
g3
Ntp197
Rp198
(dp199
g7
L882705526964617216L
sbag1
(g2
g3
Ntp200
Rp201
(dp202
g7
L3769512888109105152L
sbag1
(g2
g3
Ntp203
Rp204
(dp205
g7
L5221364116517552128L
sbag1
(g2
g3
Ntp206
Rp207
(dp208
g7
L9786321990276087808L
sbag1
(g2
g3
Ntp209
Rp210
(dp211
g7
L9795329189530828800L
sbag1
(g2
g3
Ntp212
Rp213
(dp214
g7
L9677109699312353280L
sbag1
(g2
g3
Ntp215
Rp216
(dp217
g7
L9263834064756932608L
sbag1
(g2
g3
Ntp218
Rp219
(dp220
g7
L1385982785323270144L
sbag1
(g2
g3
Ntp221
Rp222
(dp223
g7
L9936911102816288768L
sbag1
(g2
g3
Ntp224
Rp225
(dp226
g7
L1354457587931676672L
sbag1
(g2
g3
Ntp227
Rp228
(dp229
g7
L5184769071010283520L
sbag1
(g2
g3
Ntp230
Rp231
(dp232
g7
L5162251072873431040L
sbag1
(g2
g3
Ntp233
Rp234
(dp235
g7
L5220516393052536832L
sbag1
(g2
g3
Ntp236
Rp237
(dp238
g7
L10448351135499550720L
sbag1
(g2
g3
Ntp239
Rp240
(dp241
g7
L5154651248502243328L
sbag1
(g2
g3
Ntp242
Rp243
(dp244
g7
L9840365185804533760L
sbag1
(g2
g3
Ntp245
Rp246
(dp247
g7
L9809965888319782912L
sbag1
(g2
g3
Ntp248
Rp249
(dp250
g7
L12682136550675316736L
sbag1
(g2
g3
Ntp251
Rp252
(dp253
g7
L9260956642827042816L
sbag1
(g2
g3
Ntp254
Rp255
(dp256
g7
L949133621468332032L
sbag1
(g2
g3
Ntp257
Rp258
(dp259
g7
L9709760796610789376L
sbag1
(g2
g3
Ntp260
Rp261
(dp262
g7
L964896220164128768L
sbag1
(g2
g3
Ntp263
Rp264
(dp265
g7
L9868512683475599360L
sbag1
(g2
g3
Ntp266
Rp267
(dp268
g7
L8935141660703064064L
sbag1
(g2
g3
Ntp269
Rp270
(dp271
g7
L944630021840961536L
sbag1
(g2
g3
Ntp272
Rp273
(dp274
g7
L5146488474177634304L
sbag1
(g2
g3
Ntp275
Rp276
(dp277
g7
L5148740273991319552L
sbag1
(g2
g3
Ntp278
Rp279
(dp280
g7
L5221366590418714624L
sbag1
(g2
g3
Ntp281
Rp282
(dp283
g7
L3963167672086036480L
sbag1
(g2
g3
Ntp284
Rp285
(dp286
g7
L960392620536758272L
sbag1
(g2
g3
Ntp287
Rp288
(dp289
g7
L958140820723073024L
sbag1
(g2
g3
Ntp290
Rp291
(dp292
g7
L1499698675914375168L
sbag1
(g2
g3
Ntp293
Rp294
(dp295
g7
L5246693565886627840L
sbag1
(g2
g3
Ntp296
Rp297
(dp298
g7
L5057542381537067008L
sbag1
(g2
g3
Ntp299
Rp300
(dp301
g7
L5220023811843293184L
sbag1
(g2
g3
Ntp302
Rp303
(dp304
g7
L4683743612465315840L
sbag1
(g2
g3
Ntp305
Rp306
(dp307
g7
L10880696699727118336L
sbag1
(g2
g3
Ntp308
Rp309
(dp310
g7
L5220164549331648512L
sbag1
(g2
g3
Ntp311
Rp312
(dp313
g7
L9926215053701283840L
sbag1
(g2
g3
Ntp314
Rp315
(dp316
g7
L9265030333407952896L
sbag1
(g2
g3
Ntp317
Rp318
(dp319
g7
L9818973087574523904L
sbag1
(g2
g3
Ntp320
Rp321
(dp322
g7
L9825728487015579648L
sbag1
(g2
g3
Ntp323
Rp324
(dp325
g7
L10322250345933176832L
sbag1
(g2
g3
Ntp326
Rp327
(dp328
g7
L5217138693332008960L
sbag1
(g2
g3
Ntp329
Rp330
(dp331
g7
L1373597886348001280L
sbag1
(g2
g3
Ntp332
Rp333
(dp334
g7
L10160120759347838976L
sbag1
(g2
g3
Ntp335
Rp336
(dp337
g7
L9926593560579145728L
sbag1
(g2
g3
Ntp338
Rp339
(dp340
g7
L1391612284857483264L
sbag1
(g2
g3
Ntp341
Rp342
(dp343
g7
L9260878577501470720L
sbag1
(g2
g3
Ntp344
Rp345
(dp346
g7
L5219390493145694208L
sbag1
(g2
g3
Ntp347
Rp348
(dp349
g7
L4305441243766194176L
sbag1
(g2
g3
Ntp350
Rp351
(dp352
g7
L3512807709348986880L
sbag1
(g2
g3
Ntp353
Rp354
(dp355
g7
L9926594110334959616L
sbag1
(g2
g3
Ntp356
Rp357
(dp358
g7
L5220868236773425152L
sbag1
(g2
g3
Ntp359
Rp360
(dp361
g7
L5221290449238491136L
sbag1
(g2
g3
Ntp362
Rp363
(dp364
g7
L3170534137668829184L
sbag1
(g2
g3
Ntp365
Rp366
(dp367
g7
L10721944812862308352L
sbag1
(g2
g3
Ntp368
Rp369
(dp370
g7
L9926588887654727680L
sbag1
(g2
g3
Ntp371
Rp372
(dp373
g7
L5171328640872349696L
sbag1
(g2
g3
Ntp374
Rp375
(dp376
g7
L9816721287760838656L
sbag1
(g2
g3
Ntp377
Rp378
(dp379
g7
L5180955964685156352L
sbag1
(g2
g3
Ntp380
Rp381
(dp382
g7
L6092244395925438464L
sbag1
(g2
g3
Ntp383
Rp384
(dp385
g7
L3592746602734813184L
sbag1
(g2
g3
Ntp386
Rp387
(dp388
g7
L5221392703819874304L
sbag1
(g2
g3
Ntp389
Rp390
(dp391
g7
L5065423680884965376L
sbag1
(g2
g3
Ntp392
Rp393
(dp394
g7
L5069927280512335872L
sbag1
(g2
g3
Ntp395
Rp396
(dp397
g7
L9263060008570978304L
sbag1
(g2
g3
Ntp398
Rp399
(dp400
g7
L9280792932103749632L
sbag1
(g2
g3
Ntp401
Rp402
(dp403
g7
L3778520087363846144L
sbag1
(g2
g3
Ntp404
Rp405
(dp406
g7
L5836665117072162816L
sbag1
(g2
g3
Ntp407
Rp408
(dp409
g7
L9283044731917434880L
sbag1
(g2
g3
Ntp410
Rp411
(dp412
g7
L9768307591766605824L
sbag1
(g2
g3
Ntp413
Rp414
(dp415
g7
L5169850897244618752L
sbag1
(g2
g3
Ntp416
Rp417
(dp418
g7
L9933814878072471552L
sbag1
(g2
g3
Ntp419
Rp420
(dp421
g7
L1344043013793382400L
sbag1
(g2
g3
Ntp422
Rp423
(dp424
g7
L5180846013522378752L
sbag1
(g2
g3
Ntp425
Rp426
(dp427
g7
L5170413847198040064L
sbag1
(g2
g3
Ntp428
Rp429
(dp430
g7
L5170976797151461376L
sbag1
(g2
g3
Ntp431
Rp432
(dp433
g7
L5223331142819643392L
sbag1
(g2
g3
Ntp434
Rp435
(dp436
g7
L1383730985509584896L
sbag1
(g2
g3
Ntp437
Rp438
(dp439
g7
L9935222252956024832L
sbag1
(g2
g3
Ntp440
Rp441
(dp442
g7
L9936348152862867456L
sbag1
(g2
g3
Ntp443
Rp444
(dp445
g7
L10732077912023891968L
sbag1
(g2
g3
Ntp446
Rp447
(dp448
g7
L6924777008291381248L
sbag1
(g2
g3
Ntp449
Rp450
(dp451
g7
L1337569089329037312L
sbag1
(g2
g3
Ntp452
Rp453
(dp454
g7
L5144236674363949056L
sbag1
(g2
g3
Ntp455
Rp456
(dp457
g7
L1358961187559047168L
sbag1
(g2
g3
Ntp458
Rp459
(dp460
g7
L5278218763278221312L
sbag1
(g2
g3
Ntp461
Rp462
(dp463
g7
L9260979732571226112L
sbag1
(g2
g3
Ntp464
Rp465
(dp466
g7
L9921711454073913344L
sbag1
(g2
g3
Ntp467
Rp468
(dp469
g7
L9922837353980755968L
sbag1
(g2
g3
Ntp470
Rp471
(dp472
g7
L9278470763545886720L
sbag1
(g2
g3
Ntp473
Rp474
(dp475
g7
L10592466323575406592L
sbag1
(g2
g3
Ntp476
Rp477
(dp478
g7
L9290926031265333248L
sbag1
(g2
g3
Ntp479
Rp480
(dp481
g7
L7764205757586735104L
sbag1
(g2
g3
Ntp482
Rp483
(dp484
g7
L6918654927547924480L
sbag1
(g2
g3
Ntp485
Rp486
(dp487
g7
L5182517271196598272L
sbag1
(g2
g3
Ntp488
Rp489
(dp490
g7
L5187020870823968768L
sbag1
(g2
g3
Ntp491
Rp492
(dp493
g7
L9278330026057531392L
sbag1
(g2
g3
Ntp494
Rp495
(dp496
g7
L9279385557220196352L
sbag1
(g2
g3
Ntp497
Rp498
(dp499
g7
L953637221095702528L
sbag1
(g2
g3
Ntp500
Rp501
(dp502
g7
L5221374012122202112L
sbag1
(g2
g3
Ntp503
Rp504
(dp505
g7
L5222697824122044416L
sbag1
(g2
g3
Ntp506
Rp507
(dp508
g7
L946881821654646784L
sbag1
(g2
g3
Ntp509
Rp510
(dp511
g7
L951385421282017280L
sbag1
(g2
g3
Ntp512
Rp513
(dp514
g7
L5178295146545938432L
sbag1
(g2
g3
Ntp515
Rp516
(dp517
g7
L5178858096499359744L
sbag1
(g2
g3
Ntp518
Rp519
(dp520
g7
L9814469487947153408L
sbag1
(g2
g3
Ntp521
Rp522
(dp523
g7
L969399819791499264L
sbag1
(g2
g3
Ntp524
Rp525
(dp526
g7
L9864009083848228864L
sbag1
(g2
g3
Ntp527
Rp528
(dp529
g7
L6093458256762503168L
sbag1
(g2
g3
Ntp530
Rp531
(dp532
g7
L1224979098644774912L
sbag1
(g2
g3
Ntp533
Rp534
(dp535
g7
L3873095679538626560L
sbag1
(g2
g3
Ntp536
Rp537
(dp538
g7
L9278206880755220480L
sbag1
(g2
g3
Ntp539
Rp540
(dp541
g7
L1347702188490620928L
sbag1
(g2
g3
Ntp542
Rp543
(dp544
g7
L9855001884593487872L
sbag1
(g2
g3
Ntp545
Rp546
(dp547
g7
L5222416349145333760L
sbag1
(g2
g3
Ntp548
Rp549
(dp550
g7
L1343550432584138752L
sbag1
(g2
g3
Ntp551
Rp552
(dp553
g7
L5179421046452781056L
sbag1
(g2
g3
Ntp554
Rp555
(dp556
g7
L5179983996406202368L
sbag1
(g2
g3
Ntp557
Rp558
(dp559
g7
L5160280748036456448L
sbag1
(g2
g3
Ntp560
Rp561
(dp562
g7
L9923189197701644288L
sbag1
(g2
g3
Ntp563
Rp564
(dp565
g7
L5152962398641979392L
sbag1
(g2
g3
Ntp566
Rp567
(dp568
g7
L9807714088506097664L
sbag1
(g2
g3
Ntp569
Rp570
(dp571
g7
L5111585577065512960L
sbag1
(g2
g3
Ntp572
Rp573
(dp574
g7
L9926594660090773504L
sbag1
(g2
g3
Ntp575
Rp576
(dp577
g7
L6034823500676464640L
sbag1
(g2
g3
Ntp578
Rp579
(dp580
g7
L1481684277404893184L
sbag1
(g2
g3
Ntp581
Rp582
(dp583
g7
L9926989109887238144L
sbag1
(g2
g3
Ntp584
Rp585
(dp586
g7
L6090274071088463872L
sbag1
(g2
g3
Ntp587
Rp588
(dp589
g7
L1343356918537650176L
sbag1
(g2
g3
Ntp590
Rp591
(dp592
g7
L9927340953608126464L
sbag1
(g2
g3
Ntp593
Rp594
(dp595
g7
L5180948268103761920L
sbag1
(g2
g3
Ntp596
Rp597
(dp598
g7
L5075556780046548992L
sbag1
(g2
g3
Ntp599
Rp600
(dp601
g7
L9812499163110178816L
sbag1
(g2
g3
Ntp602
Rp603
(dp604
g7
L5169287947291197440L
sbag1
(g2
g3
Ntp605
Rp606
(dp607
g7
L4539628424389459968L
sbag1
(g2
g3
Ntp608
Rp609
(dp610
g7
L9750293193257123840L
sbag1
(g2
g3
Ntp611
Rp612
(dp613
g7
L6093493441134592000L
sbag1
(g2
g3
Ntp614
Rp615
(dp616
g7
L956733445839519744L
sbag1
(g2
g3
Ntp617
Rp618
(dp619
g7
L5219883074354937856L
sbag1
(g2
g3
Ntp620
Rp621
(dp622
g7
L10726448412489678848L
sbag1
(g2
g3
Ntp623
Rp624
(dp625
g7
L1380634760765767680L
sbag1
(g2
g3
Ntp626
Rp627
(dp628
g7
L3476778912330022912L
sbag1
(g2
g3
Ntp629
Rp630
(dp631
g7
L1381760660672610304L
sbag1
(g2
g3
Ntp632
Rp633
(dp634
g7
L5221853399191912448L
sbag1
(g2
g3
Ntp635
Rp636
(dp637
g7
L5536049841945182208L
sbag1
(g2
g3
Ntp638
Rp639
(dp640
g7
L6629298651489370112L
sbag1
(g2
g3
Ntp641
Rp642
(dp643
g7
L9823476687201894400L
sbag1
(g2
g3
Ntp644
Rp645
(dp646
g7
L5215449843471745024L
sbag1
(g2
g3
Ntp647
Rp648
(dp649
g7
L5216575743378587648L
sbag1
(g2
g3
Ntp650
Rp651
(dp652
g7
L5159154848129613824L
sbag1
(g2
g3
Ntp653
Rp654
(dp655
g7
L5160843697989877760L
sbag1
(g2
g3
Ntp656
Rp657
(dp658
g7
L9920304079190360064L
sbag1
(g2
g3
Ntp659
Rp660
(dp661
g7
L5119466876413411328L
sbag1
(g2
g3
Ntp662
Rp663
(dp664
g7
L5164784347663826944L
sbag1
(g2
g3
Ntp665
Rp666
(dp667
g7
L1379227385882214400L
sbag1
(g2
g3
Ntp668
Rp669
(dp670
g7
L9260597102524760064L
sbag1
(g2
g3
Ntp671
Rp672
(dp673
g7
L9923629002352754688L
sbag1
(g2
g3
Ntp674
Rp675
(dp676
g7
L5180950192249110528L
sbag1
(g2
g3
Ntp677
Rp678
(dp679
g7
L5180951291760738304L
sbag1
(g2
g3
Ntp680
Rp681
(dp682
g7
L4197354852709302272L
sbag1
(g2
g3
Ntp683
Rp684
(dp685
g7
L10754595910160744448L
sbag1
(g2
g3
Ntp686
Rp687
(dp688
g7
L5218264593238851584L
sbag1
(g2
g3
Ntp689
Rp690
(dp691
g7
L5218827543192272896L
sbag1
(g2
g3
Ntp692
Rp693
(dp694
g7
L990791918021509120L
sbag1
(g2
g3
Ntp695
Rp696
(dp697
g7
L5404319552844595200L
sbag1
(g2
g3
Ntp698
Rp699
(dp700
g7
L5151906867479314432L
sbag1
(g2
g3
Ntp701
Rp702
(dp703
g7
L6111384694341763072L
sbag1
(g2
g3
Ntp704
Rp705
(dp706
g7
L3548836506367950848L
sbag1
(g2
g3
Ntp707
Rp708
(dp709
g7
L5151766129990959104L
sbag1
(g2
g3
Ntp710
Rp711
(dp712
g7
L5227834742447013888L
sbag1
(g2
g3
Ntp713
Rp714
(dp715
g7
L5228397692400435200L
sbag1
(g2
g3
Ntp716
Rp717
(dp718
g7
L5566449139429933056L
sbag1
(g2
g3
Ntp719
Rp720
(dp721
g7
L5225582942633328640L
sbag1
(g2
g3
Ntp722
Rp723
(dp724
g7
L9759300392511864832L
sbag1
(g2
g3
Ntp725
Rp726
(dp727
g7
L9732278794747641856L
sbag1
(g2
g3
Ntp728
Rp729
(dp730
g7
L5221483963284979712L
sbag1
(g2
g3
Ntp731
Rp732
(dp733
g7
L5226145892586749952L
sbag1
(g2
g3
Ntp734
Rp735
(dp736
g7
L7716636486522634240L
sbag1
(g2
g3
Ntp737
Rp738
(dp739
g7
L5171469378360705024L
sbag1
(g2
g3
Ntp740
Rp741
(dp742
g7
L5180964760778178560L
sbag1
(g2
g3
Ntp743
Rp744
(dp745
g7
L5180938372499111936L
sbag1
(g2
g3
Ntp746
Rp747
(dp748
g7
L5152399448688558080L
sbag1
(g2
g3
Ntp749
Rp750
(dp751
g7
L5221571924215201792L
sbag1
(g2
g3
Ntp752
Rp753
(dp754
g7
L5153525348595400704L
sbag1
(g2
g3
Ntp755
Rp756
(dp757
g7
L5221712661703557120L
sbag1
(g2
g3
Ntp758
Rp759
(dp760
g7
L1459166279268040704L
sbag1
(g2
g3
Ntp761
Rp762
(dp763
g7
L5222275611656978432L
sbag1
(g2
g3
Ntp764
Rp765
(dp766
g7
L3588243003107442688L
sbag1
(g2
g3
Ntp767
Rp768
(dp769
g7
L1531223873305968640L
sbag1
(g2
g3
Ntp770
Rp771
(dp772
g7
L9938318477699842048L
sbag1
(g2
g3
Ntp773
Rp774
(dp775
g7
L9940570277513527296L
sbag1
(g2
g3
Ntp776
Rp777
(dp778
g7
L9942822077327212544L
sbag1
(g2
g3
Ntp779
Rp780
(dp781
g7
L6096747995552808960L
sbag1
(g2
g3
Ntp782
Rp783
(dp784
g7
L9926549305236127744L
sbag1
(g2
g3
Ntp785
Rp786
(dp787
g7
L9261934108664135680L
sbag1
(g2
g3
Ntp788
Rp789
(dp790
g7
L9262497058617556992L
sbag1
(g2
g3
Ntp791
Rp792
(dp793
g7
L1080863910568919040L
sbag1
(g2
g3
Ntp794
Rp795
(dp796
g7
L5210664768867663872L
sbag1
(g2
g3
Ntp797
Rp798
(dp799
g7
L3760505688854364160L
sbag1
(g2
g3
Ntp800
Rp801
(dp802
g7
L5173510071941857280L
sbag1
(g2
g3
Ntp803
Rp804
(dp805
g7
L5516909543528857600L
sbag1
(g2
g3
Ntp806
Rp807
(dp808
g7
L918734323983581184L
sbag1
(g2
g3
Ntp809
Rp810
(dp811
g7
L9278242065127309312L
sbag1
(g2
g3
Ntp812
Rp813
(dp814
g7
L5221361917494296576L
sbag1
(g2
g3
Ntp815
Rp816
(dp817
g7
L1343691170072494080L
sbag1
(g2
g3
Ntp818
Rp819
(dp820
g7
L9439544818968559616L
sbag1
(g2
g3
Ntp821
Rp822
(dp823
g7
L5221448778912890880L
sbag1
(g2
g3
Ntp824
Rp825
(dp826
g7
L5221413594540802048L
sbag1
(g2
g3
Ntp827
Rp828
(dp829
g7
L9777314791021346816L
sbag1
(g2
g3
Ntp830
Rp831
(dp832
g7
L648518346341351424L
sbag1
(g2
g3
Ntp833
Rp834
(dp835
g7
L9261001722803781632L
sbag1
(g2
g3
Ntp836
Rp837
(dp838
g7
L9261036907175870464L
sbag1
(g2
g3
Ntp839
Rp840
(dp841
g7
L9926580091561705472L
sbag1
(g2
g3
Ntp842
Rp843
(dp844
g7
L5692549928996306944L
sbag1
(g2
g3
Ntp845
Rp846
(dp847
g7
L9679361499126038528L
sbag1
(g2
g3
Ntp848
Rp849
(dp850
g7
L9263411852291866624L
sbag1
(g2
g3
Ntp851
Rp852
(dp853
g7
L9263552589780221952L
sbag1
(g2
g3
Ntp854
Rp855
(dp856
g7
L9929311278445101056L
sbag1
(g2
g3
Ntp857
Rp858
(dp859
g7
L5150147648874872832L
sbag1
(g2
g3
Ntp860
Rp861
(dp862
g7
L5150710598828294144L
sbag1
(g2
g3
Ntp863
Rp864
(dp865
g7
L5151273548781715456L
sbag1
(g2
g3
Ntp866
Rp867
(dp868
g7
L1342354163933118464L
sbag1
(g2
g3
Ntp869
Rp870
(dp871
g7
L1342917113886539776L
sbag1
(g2
g3
Ntp872
Rp873
(dp874
g7
L9912422779842461696L
sbag1
(g2
g3
Ntp875
Rp876
(dp877
g7
L2594073385365405696L
sbag1
(g2
g3
Ntp878
Rp879
(dp880
g7
L1423137482249076736L
sbag1
(g2
g3
Ntp881
Rp882
(dp883
g7
L7566047373982433280L
sbag1
(g2
g3
Ntp884
Rp885
(dp886
g7
L5926737109619572736L
sbag1
(g2
g3
Ntp887
Rp888
(dp889
g7
L1343462471653916672L
sbag1
(g2
g3
Ntp890
Rp891
(dp892
g7
L5314247560297185280L
sbag1
(g2
g3
Ntp893
Rp894
(dp895
g7
L1352205788117991424L
sbag1
(g2
g3
Ntp896
Rp897
(dp898
g7
L9812147319389290496L
sbag1
(g2
g3
Ntp899
Rp900
(dp901
g7
L9924807678817730560L
sbag1
(g2
g3
Ntp902
Rp903
(dp904
g7
L9277696707359932416L
sbag1
(g2
g3
Ntp905
Rp906
(dp907
g7
L7656119366529843200L
sbag1
(g2
g3
Ntp908
Rp909
(dp910
g7
L9278822607266775040L
sbag1
(g2
g3
Ntp911
Rp912
(dp913
g7
L9926600982282633216L
sbag1
(g2
g3
Ntp914
Rp915
(dp916
g7
L7133701809754865664L
sbag1
(g2
g3
Ntp917
Rp918
(dp919
g7
L7277816997830721536L
sbag1
(g2
g3
Ntp920
Rp921
(dp922
g7
L7718043861406187520L
sbag1
(g2
g3
Ntp923
Rp924
(dp925
g7
L9260962140385181696L
sbag1
(g2
g3
Ntp926
Rp927
(dp928
g7
L9260970936478203904L
sbag1
(g2
g3
Ntp929
Rp930
(dp931
g7
L1382534716858564608L
sbag1
(g2
g3
Ntp932
Rp933
(dp934
g7
L9922274404027334656L
sbag1
(g2
g3
Ntp935
Rp936
(dp937
g7
L6093862877041524736L
sbag1
(g2
g3
Ntp938
Rp939
(dp940
g7
L7043629817207455744L
sbag1
(g2
g3
Ntp941
Rp942
(dp943
g7
L6971572223169527808L
sbag1
(g2
g3
Ntp944
Rp945
(dp946
g7
L7007601020188491776L
sbag1
(g2
g3
Ntp947
Rp948
(dp949
g7
L6949054225032675328L
sbag1
(g2
g3
Ntp950
Rp951
(dp952
g7
L6931039826523193344L
sbag1
(g2
g3
Ntp953
Rp954
(dp955
g7
L6940047025777934336L
sbag1
(g2
g3
Ntp956
Rp957
(dp958
g7
L9286140956661252096L
sbag1
(g2
g3
Ntp959
Rp960
(dp961
g7
L5155214198455664640L
sbag1
(g2
g3
Ntp962
Rp963
(dp964
g7
L5201657569612922880L
sbag1
(g2
g3
Ntp965
Rp966
(dp967
g7
L5155777148409085952L
sbag1
(g2
g3
Ntp968
Rp969
(dp970
g7
L6920906727361609728L
sbag1
(g2
g3
Ntp971
Rp972
(dp973
g7
L6923158527175294976L
sbag1
(g2
g3
Ntp974
Rp975
(dp976
g7
L9278048551080820736L
sbag1
(g2
g3
Ntp977
Rp978
(dp979
g7
L6142909891733356544L
sbag1
(g2
g3
Ntp980
Rp981
(dp982
g7
L9849372385059274752L
sbag1
(g2
g3
Ntp983
Rp984
(dp985
g7
L9802366063948595200L
sbag1
(g2
g3
Ntp986
Rp987
(dp988
g7
L9802929013902016512L
sbag1
(g2
g3
Ntp989
Rp990
(dp991
g7
L9803491963855437824L
sbag1
(g2
g3
Ntp992
Rp993
(dp994
g7
L9261072091547959296L
sbag1
(g2
g3
Ntp995
Rp996
(dp997
g7
L9260952244780531712L
sbag1
(g2
g3
Ntp998
Rp999
(dp1000
g7
L9260954443803787264L
sbag1
(g2
g3
Ntp1001
Rp1002
(dp1003
g7
L5222557086633689088L
sbag1
(g2
g3
Ntp1004
Rp1005
(dp1006
g7
L5221382808215224320L
sbag1
(g2
g3
Ntp1007
Rp1008
(dp1009
g7
L5221368514564063232L
sbag1
(g2
g3
Ntp1010
Rp1011
(dp1012
g7
L5154299404781355008L
sbag1
(g2
g3
Ntp1013
Rp1014
(dp1015
g7
L5165347297617248256L
sbag1
(g2
g3
Ntp1016
Rp1017
(dp1018
g7
L9813062113063600128L
sbag1
(g2
g3
Ntp1019
Rp1020
(dp1021
g7
L9870764483289284608L
sbag1
(g2
g3
Ntp1022
Rp1023
(dp1024
g7
L9926598783259377664L
sbag1
(g2
g3
Ntp1025
Rp1026
(dp1027
g7
L5177732196592517120L
sbag1
(g2
g3
Ntp1028
Rp1029
(dp1030
g7
L9284452106800988160L
sbag1
(g2
g3
Ntp1031
Rp1032
(dp1033
g7
L9285015056754409472L
sbag1
(g2
g3
Ntp1034
Rp1035
(dp1036
g7
L1400619484112224256L
sbag1
(g2
g3
Ntp1037
Rp1038
(dp1039
g7
L6926254751919112192L
sbag1
(g2
g3
Ntp1040
Rp1041
(dp1042
g7
L967148019977814016L
sbag1
(g2
g3
Ntp1043
Rp1044
(dp1045
g7
L9681613298939723776L
sbag1
(g2
g3
Ntp1046
Rp1047
(dp1048
g7
L971651619605184512L
sbag1
(g2
g3
Ntp1049
Rp1050
(dp1051
g7
L9866260883661914112L
sbag1
(g2
g3
Ntp1052
Rp1053
(dp1054
g7
L3801038085500698624L
sbag1
(g2
g3
Ntp1055
Rp1056
(dp1057
g7
L937874622399905792L
sbag1
(g2
g3
Ntp1058
Rp1059
(dp1060
g7
L11240984669916758016L
sbag1
(g2
g3
Ntp1061
Rp1062
(dp1063
g7
L940126422213591040L
sbag1
(g2
g3
Ntp1064
Rp1065
(dp1066
g7
L9278136512011042816L
sbag1
(g2
g3
Ntp1067
Rp1068
(dp1069
g7
L942378222027276288L
sbag1
(g2
g3
Ntp1070
Rp1071
(dp1072
g7
L8358680908399640576L
sbag1
(g2
g3
Ntp1073
Rp1074
(dp1075
g7
L1345450388676935680L
sbag1
(g2
g3
Ntp1076
Rp1077
(dp1078
g7
L9803984545064681472L
sbag1
(g2
g3
Ntp1079
Rp1080
(dp1081
g7
L9804125282553036800L
sbag1
(g2
g3
Ntp1082
Rp1083
(dp1084
g7
L1349953988304306176L
sbag1
(g2
g3
Ntp1085
Rp1086
(dp1087
g7
L9857253684407173120L
sbag1
(g2
g3
Ntp1088
Rp1089
(dp1090
g7
L9859505484220858368L
sbag1
(g2
g3
Ntp1091
Rp1092
(dp1093
g7
L1343268957607428096L
sbag1
(g2
g3
Ntp1094
Rp1095
(dp1096
g7
L6120391893596504064L
sbag1
(g2
g3
Ntp1097
Rp1098
(dp1099
g7
L1508705875169116160L
sbag1
(g2
g3
Ntp1100
Rp1101
(dp1102
g7
L9923470672678354944L
sbag1
(g2
g3
Ntp1103
Rp1104
(dp1105
g7
L6093581402064814080L
sbag1
(g2
g3
Ntp1106
Rp1107
(dp1108
g7
L6093722139553169408L
sbag1
(g2
g3
Ntp1109
Rp1110
(dp1111
g7
L5221365490907086848L
sbag1
(g2
g3
Ntp1112
Rp1113
(dp1114
g7
L5180546946359623680L
sbag1
(g2
g3
Ntp1115
Rp1116
(dp1117
g7
L9889904781705609216L
sbag1
(g2
g3
Ntp1118
Rp1119
(dp1120
g7
L5221367140174528512L
sbag1
(g2
g3
Ntp1121
Rp1122
(dp1123
g7
L9923329935189999616L
sbag1
(g2
g3
Ntp1124
Rp1125
(dp1126
g7
L1315051091192184832L
sbag1
(g2
g3
Ntp1127
Rp1128
(dp1129
g7
L5538301641758867456L
sbag1
(g2
g3
Ntp1130
Rp1131
(dp1132
g7
L1657324662872342528L
sbag1
(g2
g3
Ntp1133
Rp1134
(dp1135
g7
L5102578377810771968L
sbag1
(g2
g3
Ntp1136
Rp1137
(dp1138
g7
L5093571178556030976L
sbag1
(g2
g3
Ntp1139
Rp1140
(dp1141
g7
L5172032328314126336L
sbag1
(g2
g3
Ntp1142
Rp1143
(dp1144
g7
L5172173065802481664L
sbag1
(g2
g3
Ntp1145
Rp1146
(dp1147
g7
L7421932185906577408L
sbag1
(g2
g3
Ntp1148
Rp1149
(dp1150
g7
L7723673360940400640L
sbag1
(g2
g3
Ntp1151
Rp1152
(dp1153
g7
L7732680560195141632L
sbag1
(g2
g3
Ntp1154
Rp1155
(dp1156
g7
L7741687759449882624L
sbag1
(g2
g3
Ntp1157
Rp1158
(dp1159
g7
L962644420350443520L
sbag1
(g2
g3
Ntp1160
Rp1161
(dp1162
g7
L5237686366631886848L
sbag1
(g2
g3
Ntp1163
Rp1164
(dp1165
g7
L6089148171181621248L
sbag1
(g2
g3
Ntp1166
Rp1167
(dp1168
g7
L9241386435364257792L
sbag1
(g2
g3
Ntp1169
Rp1170
(dp1171
g7
L6089711121135042560L
sbag1
(g2
g3
Ntp1172
Rp1173
(dp1174
g7
L5048535182282326016L
sbag1
(g2
g3
Ntp1175
Rp1176
(dp1177
g7
L9918052279376674816L
sbag1
(g2
g3
Ntp1178
Rp1179
(dp1180
g7
L1343427287281827840L
sbag1
(g2
g3
Ntp1181
Rp1182
(dp1183
g7
L5180943870057250816L
sbag1
(g2
g3
Ntp1184
Rp1185
(dp1186
g7
L5180946069080506368L
sbag1
(g2
g3
Ntp1187
Rp1188
(dp1189
g7
L5181039527568867328L
sbag1
(g2
g3
Ntp1190
Rp1191
(dp1192
g7
L9811373263203336192L
sbag1
(g2
g3
Ntp1193
Rp1194
(dp1195
g7
L5543931141293080576L
sbag1
(g2
g3
Ntp1196
Rp1197
(dp1198
g7
L9687242798473936896L
sbag1
(g2
g3
Ntp1199
Rp1200
(dp1201
g7
L10682538316122816512L
sbag1
(g2
g3
Ntp1202
Rp1203
(dp1204
g7
L4395513236313604096L
sbag1
(g2
g3
Ntp1205
Rp1206
(dp1207
g7
L5168724997337776128L
sbag1
(g2
g3
Ntp1208
Rp1209
(dp1210
g7
L9800958689065041920L
sbag1
(g2
g3
Ntp1211
Rp1212
(dp1213
g7
L6093423072390414336L
sbag1
(g2
g3
Ntp1214
Rp1215
(dp1216
g7
L5175761871755542528L
sbag1
(g2
g3
Ntp1217
Rp1218
(dp1219
g7
L955044595979255808L
sbag1
(g2
g3
Ntp1220
Rp1221
(dp1222
g7
L9805462288692412416L
sbag1
(g2
g3
Ntp1223
Rp1224
(dp1225
g7
L956170495886098432L
sbag1
(g2
g3
Ntp1226
Rp1227
(dp1228
g7
L1567252670324932608L
sbag1
(g2
g3
Ntp1229
Rp1230
(dp1231
g7
L5219742336866582528L
sbag1
(g2
g3
Ntp1232
Rp1233
(dp1234
g7
L5181321002545577984L
sbag1
(g2
g3
Ntp1235
Rp1236
(dp1237
g7
L1382112504393498624L
sbag1
(g2
g3
Ntp1238
Rp1239
(dp1240
g7
L9926619673980305408L
sbag1
(g2
g3
Ntp1241
Rp1242
(dp1243
g7
L1382253241881853952L
sbag1
(g2
g3
Ntp1244
Rp1245
(dp1246
g7
L10705056314259668992L
sbag1
(g2
g3
Ntp1247
Rp1248
(dp1249
g7
L10714063513514409984L
sbag1
(g2
g3
Ntp1250
Rp1251
(dp1252
g7
L4827858800541171712L
sbag1
(g2
g3
Ntp1253
Rp1254
(dp1255
g7
L5494391545392005120L
sbag1
(g2
g3
Ntp1256
Rp1257
(dp1258
g7
L6925128852012269568L
sbag1
(g2
g3
Ntp1259
Rp1260
(dp1261
g7
L6925691801965690880L
sbag1
(g2
g3
Ntp1262
Rp1263
(dp1264
g7
L5531546242317811712L
sbag1
(g2
g3
Ntp1265
Rp1266
(dp1267
g7
L9259682308850450432L
sbag1
(g2
g3
Ntp1268
Rp1269
(dp1270
g7
L9260245258803871744L
sbag1
(g2
g3
Ntp1271
Rp1272
(dp1273
g7
L9923664186724843520L
sbag1
(g2
g3
Ntp1274
Rp1275
(dp1276
g7
L9261371158710714368L
sbag1
(g2
g3
Ntp1277
Rp1278
(dp1279
g7
L9821224887388209152L
sbag1
(g2
g3
Ntp1280
Rp1281
(dp1282
g7
L10250192751895248896L
sbag1
(g2
g3
Ntp1283
Rp1284
(dp1285
g7
L10286221548914212864L
sbag1
(g2
g3
Ntp1286
Rp1287
(dp1288
g7
L7998392938210000896L
sbag1
(g2
g3
Ntp1289
Rp1290
(dp1291
g7
L10358279142952140800L
sbag1
(g2
g3
Ntp1292
Rp1293
(dp1294
g7
L5181180265057222656L
sbag1
(g2
g3
Ntp1295
Rp1296
(dp1297
g7
L5216012793425166336L
sbag1
(g2
g3
Ntp1298
Rp1299
(dp1300
g7
L1364590687093260288L
sbag1
(g2
g3
Ntp1301
Rp1302
(dp1303
g7
L5159717798083035136L
sbag1
(g2
g3
Ntp1304
Rp1305
(dp1306
g7
L6070852297695428608L
sbag1
(g2
g3
Ntp1307
Rp1308
(dp1309
g7
L5117215076599726080L
sbag1
(g2
g3
Ntp1310
Rp1311
(dp1312
g7
L6178938688752320512L
sbag1
(g2
g3
Ntp1313
Rp1314
(dp1315
g7
L5121718676227096576L
sbag1
(g2
g3
Ntp1316
Rp1317
(dp1318
g7
L5123970476040781824L
sbag1
(g2
g3
Ntp1319
Rp1320
(dp1321
g7
L5164221397710405632L
sbag1
(g2
g3
Ntp1322
Rp1323
(dp1324
g7
L9349472826421149696L
sbag1
(g2
g3
Ntp1325
Rp1326
(dp1327
g7
L7711288461965131776L
sbag1
(g2
g3
Ntp1328
Rp1329
(dp1330
g7
L6094214720762413056L
sbag1
(g2
g3
Ntp1331
Rp1332
(dp1333
g7
L7713540261778817024L
sbag1
(g2
g3
Ntp1334
Rp1335
(dp1336
g7
L9923558633608577024L
sbag1
(g2
g3
Ntp1337
Rp1338
(dp1339
g7
L6095340620669255680L
sbag1
(g2
g3
Ntp1340
Rp1341
(dp1342
g7
L9260737840013115392L
sbag1
(g2
g3
Ntp1343
Rp1344
(dp1345
g7
L5232056867097673728L
sbag1
(g2
g3
Ntp1346
Rp1347
(dp1348
g7
L9313444029402185728L
sbag1
(g2
g3
Ntp1349
Rp1350
(dp1351
g7
L5180950742004924416L
sbag1
(g2
g3
Ntp1352
Rp1353
(dp1354
g7
L5153877192316289024L
sbag1
(g2
g3
Ntp1355
Rp1356
(dp1357
g7
L4971973988617027584L
sbag1
(g2
g3
Ntp1358
Rp1359
(dp1360
g7
L5154158667292999680L
sbag1
(g2
g3
Ntp1361
Rp1362
(dp1363
g7
L6269010681299730432L
sbag1
(g2
g3
Ntp1364
Rp1365
(dp1366
g7
L4233383649728266240L
sbag1
(g2
g3
Ntp1367
Rp1368
(dp1369
g7
L4269412446747230208L
sbag1
(g2
g3
Ntp1370
Rp1371
(dp1372
g7
L5217701643285430272L
sbag1
(g2
g3
Ntp1373
Rp1374
(dp1375
g7
L6102377495087022080L
sbag1
(g2
g3
Ntp1376
Rp1377
(dp1378
g7
L5180881197894467584L
sbag1
(g2
g3
Ntp1379
Rp1380
(dp1381
g7
L9260949221123555328L
sbag1
(g2
g3
Ntp1382
Rp1383
(dp1384
g7
L5180916382266556416L
sbag1
(g2
g3
Ntp1385
Rp1386
(dp1387
g7
L9260950320635183104L
sbag1
(g2
g3
Ntp1388
Rp1389
(dp1390
g7
L9260950870390996992L
sbag1
(g2
g3
Ntp1391
Rp1392
(dp1393
g7
L6924354795826315264L
sbag1
(g2
g3
Ntp1394
Rp1395
(dp1396
g7
L6924636270803025920L
sbag1
(g2
g3
Ntp1397
Rp1398
(dp1399
g7
L9272911632755851264L
sbag1
(g2
g3
Ntp1400
Rp1401
(dp1402
g7
L216172782113783808L
sbag1
(g2
g3
Ntp1403
Rp1404
(dp1405
g7
L360287970189639680L
sbag1
(g2
g3
Ntp1406
Rp1407
(dp1408
g7
L5151625392502603776L
sbag1
(g2
g3
Ntp1409
Rp1410
(dp1411
g7
L504403158265495552L
sbag1
(g2
g3
Ntp1412
Rp1413
(dp1414
g7
L5255700765141368832L
sbag1
(g2
g3
Ntp1415
Rp1416
(dp1417
g7
L5152047604967669760L
sbag1
(g2
g3
Ntp1418
Rp1419
(dp1420
g7
L9660221200709713920L
sbag1
(g2
g3
Ntp1421
Rp1422
(dp1423
g7
L5227271792493592576L
sbag1
(g2
g3
Ntp1424
Rp1425
(dp1426
g7
L5129599975574994944L
sbag1
(g2
g3
Ntp1427
Rp1428
(dp1429
g7
L5221008974261780480L
sbag1
(g2
g3
Ntp1430
Rp1431
(dp1432
g7
L5221149711750135808L
sbag1
(g2
g3
Ntp1433
Rp1434
(dp1435
g7
L5224457042726486016L
sbag1
(g2
g3
Ntp1436
Rp1437
(dp1438
g7
L5225019992679907328L
sbag1
(g2
g3
Ntp1439
Rp1440
(dp1441
g7
L5602477936448897024L
sbag1
(g2
g3
Ntp1442
Rp1443
(dp1444
g7
L10719693013048623104L
sbag1
(g2
g3
Ntp1445
Rp1446
(dp1447
g7
L9926707634910527488L
sbag1
(g2
g3
Ntp1448
Rp1449
(dp1450
g7
L10724196612675993600L
sbag1
(g2
g3
Ntp1451
Rp1452
(dp1453
g7
L3571354504504803328L
sbag1
(g2
g3
Ntp1454
Rp1455
(dp1456
g7
L9926514120864038912L
sbag1
(g2
g3
Ntp1457
Rp1458
(dp1459
g7
L3580361703759544320L
sbag1
(g2
g3
Ntp1460
Rp1461
(dp1462
g7
L7714947636662370304L
sbag1
(g2
g3
Ntp1463
Rp1464
(dp1465
g7
L3598376102269026304L
sbag1
(g2
g3
Ntp1466
Rp1467
(dp1468
g7
L7716073536569212928L
sbag1
(g2
g3
Ntp1469
Rp1470
(dp1471
g7
L9926848372398882816L
sbag1
(g2
g3
Ntp1472
Rp1473
(dp1474
g7
L5229805067283988480L
sbag1
(g2
g3
Ntp1475
Rp1476
(dp1477
g7
L5171610115849060352L
sbag1
(g2
g3
Ntp1478
Rp1479
(dp1480
g7
L1343405297049272320L
sbag1
(g2
g3
Ntp1481
Rp1482
(dp1483
g7
L1343387704863227904L
sbag1
(g2
g3
Ntp1484
Rp1485
(dp1486
g7
L1343396500956250112L
sbag1
(g2
g3
Ntp1487
Rp1488
(dp1489
g7
L9811725106924224512L
sbag1
(g2
g3
Ntp1490
Rp1491
(dp1492
g7
L10016005571271983104L
sbag1
(g2
g3
Ntp1493
Rp1494
(dp1495
g7
L9811865844412579840L
sbag1
(g2
g3
Ntp1496
Rp1497
(dp1498
g7
L1382341202812076032L
sbag1
(g2
g3
Ntp1499
Rp1500
(dp1501
g7
L1382376387184164864L
sbag1
(g2
g3
Ntp1502
Rp1503
(dp1504
g7
L1382411571556253696L
sbag1
(g2
g3
Ntp1505
Rp1506
(dp1507
g7
L9935574096676913152L
sbag1
(g2
g3
Ntp1508
Rp1509
(dp1510
g7
L9935714834165268480L
sbag1
(g2
g3
Ntp1511
Rp1512
(dp1513
g7
L9935996309141979136L
sbag1
(g2
g3
Ntp1514
Rp1515
(dp1516
g7
L5221994136680267776L
sbag1
(g2
g3
Ntp1517
Rp1518
(dp1519
g7
L5222134874168623104L
sbag1
(g2
g3
Ntp1520
Rp1521
(dp1522
g7
L9926571295468683264L
sbag1
(g2
g3
Ntp1523
Rp1524
(dp1525
g7
L3585991203293757440L
sbag1
(g2
g3
Ntp1526
Rp1527
(dp1528
g7
L5172313803290836992L
sbag1
(g2
g3
Ntp1529
Rp1530
(dp1531
g7
L3590494802921127936L
sbag1
(g2
g3
Ntp1532
Rp1533
(dp1534
g7
L5221388305773363200L
sbag1
(g2
g3
Ntp1535
Rp1536
(dp1537
g7
L3837066882519662592L
sbag1
(g2
g3
Ntp1538
Rp1539
(dp1540
g7
L792633534417207296L
sbag1
(g2
g3
Ntp1541
Rp1542
(dp1543
g7
L5221394902843129856L
sba.