(lp0
ccopy_reg
_reconstructor
p1
(cs2sphere.sphere
CellId
p2
c__builtin__
object
p3
Ntp4
Rp5
(dp6
S'_CellId__id'
p7
L10088063165309911040L
sbag1
(g2
g3
Ntp8
Rp9
(dp10
g7
L5170132372221329408L
sbag1
(g2
g3
Ntp11
Rp12
(dp13
g7
L1152921504606846976L
sbag1
(g2
g3
Ntp14
Rp15
(dp16
g7
L9511602413006487552L
sbag1
(g2
g3
Ntp17
Rp18
(dp19
g7
L10664523917613334528L
sbag1
(g2
g3
Ntp20
Rp21
(dp22
g7
L4683743612465315840L
sbag1
(g2
g3
Ntp23
Rp24
(dp25
g7
L5476377146882523136L
sbag1
(g2
g3
Ntp26
Rp27
(dp28
g7
L8070450532247928832L
sbag1
(g2
g3
Ntp29
Rp30
(dp31
g7
L3458764513820540928L
sbag1
(g2
g3
Ntp32
Rp33
(dp34
g7
L12682136550675316736L
sbag1
(g2
g3
Ntp35
Rp36
(dp37
g7
L11240984669916758016L
sbag1
(g2
g3
Ntp38
Rp39
(dp40
g7
L6629298651489370112L
sbag1
(g2
g3
Ntp41
Rp42
(dp43
g7
L4827858800541171712L
sbag1
(g2
g3
Ntp44
Rp45
(dp46
g7
L4971973988617027584L
sbag1
(g2
g3
Ntp47
Rp48
(dp49
g7
L5062045981164437504L
sbag1
(g2
g3
Ntp50
Rp51
(dp52
g7
L5098074778183401472L
sbag1
(g2
g3
Ntp53
Rp54
(dp55
g7
L5134103575202365440L
sbag1
(g2
g3
Ntp56
Rp57
(dp58
g7
L6052837899185946624L
sba.