(lp0
ccopy_reg
_reconstructor
p1
(cs2sphere.sphere
CellId
p2
c__builtin__
object
p3
Ntp4
Rp5
(dp6
S'_CellId__id'
p7
L952229846212149248L
sbag1
(g2
g3
Ntp8
Rp9
(dp10
g7
L5221364391395459072L
sbag1
(g2
g3
Ntp11
Rp12
(dp13
g7
L5119349228669239296L
sbag1
(g2
g3
Ntp14
Rp15
(dp16
g7
L1382429507339681792L
sbag1
(g2
g3
Ntp17
Rp18
(dp19
g7
L9870764483289284608L
sbag1
(g2
g3
Ntp20
Rp21
(dp22
g7
L6094971184762322944L
sbag1
(g2
g3
Ntp23
Rp24
(dp25
g7
L3869717979818098688L
sbag1
(g2
g3
Ntp26
Rp27
(dp28
g7
L9263411852291866624L
sbag1
(g2
g3
Ntp29
Rp30
(dp31
g7
L1382431087887646720L
sbag1
(g2
g3
Ntp32
Rp33
(dp34
g7
L5217155186006425600L
sbag1
(g2
g3
Ntp35
Rp36
(dp37
g7
L4161326055690338304L
sbag1
(g2
g3
Ntp38
Rp39
(dp40
g7
L6924437259198398464L
sbag1
(g2
g3
Ntp41
Rp42
(dp43
g7
L3476778912330022912L
sbag1
(g2
g3
Ntp44
Rp45
(dp46
g7
L1349672513327595520L
sbag1
(g2
g3
Ntp47
Rp48
(dp49
g7
L9796455089437671424L
sbag1
(g2
g3
Ntp50
Rp51
(dp52
g7
L4111786459789262848L
sbag1
(g2
g3
Ntp53
Rp54
(dp55
g7
L9529616811515969536L
sbag1
(g2
g3
Ntp56
Rp57
(dp58
g7
L1358961187559047168L
sbag1
(g2
g3
Ntp59
Rp60
(dp61
g7
L1356427912768651264L
sbag1
(g2
g3
Ntp62
Rp63
(dp64
g7
L964614745187418112L
sbag1
(g2
g3
Ntp65
Rp66
(dp67
g7
L967148019977814016L
sbag1
(g2
g3
Ntp68
Rp69
(dp70
g7
L5160632591757344768L
sbag1
(g2
g3
Ntp71
Rp72
(dp73
g7
L5093571178556030976L
sbag1
(g2
g3
Ntp74
Rp75
(dp76
g7
L5171311048686305280L
sbag1
(g2
g3
Ntp77
Rp78
(dp79
g7
L9279883635987578880L
sbag1
(g2
g3
Ntp80
Rp81
(dp82
g7
L6012586977516322816L
sbag1
(g2
g3
Ntp83
Rp84
(dp85
g7
L1379227385882214400L
sbag1
(g2
g3
Ntp86
Rp87
(dp88
g7
L7751046802425511936L
sbag1
(g2
g3
Ntp89
Rp90
(dp91
g7
L5223735763098664960L
sbag1
(g2
g3
Ntp92
Rp93
(dp94
g7
L963853883140997120L
sbag1
(g2
g3
Ntp95
Rp96
(dp97
g7
L5146787541340389376L
sbag1
(g2
g3
Ntp98
Rp99
(dp100
g7
L43065671436730368L
sbag1
(g2
g3
Ntp101
Rp102
(dp103
g7
L9862038759011254272L
sbag1
(g2
g3
Ntp104
Rp105
(dp106
g7
L5222820969424355328L
sbag1
(g2
g3
Ntp107
Rp108
(dp109
g7
L10092566764937281536L
sbag1
(g2
g3
Ntp110
Rp111
(dp112
g7
L5168091678640177152L
sbag1
(g2
g3
Ntp113
Rp114
(dp115
g7
L9924807678817730560L
sbag1
(g2
g3
Ntp116
Rp117
(dp118
g7
L5163460535663984640L
sbag1
(g2
g3
Ntp119
Rp120
(dp121
g7
L10592466323575406592L
sbag1
(g2
g3
Ntp122
Rp123
(dp124
g7
L5219179386913161216L
sbag1
(g2
g3
Ntp125
Rp126
(dp127
g7
L5222557086633689088L
sbag1
(g2
g3
Ntp128
Rp129
(dp130
g7
L9810247363296493568L
sbag1
(g2
g3
Ntp131
Rp132
(dp133
g7
L4661225614328463360L
sbag1
(g2
g3
Ntp134
Rp135
(dp136
g7
L5222966104959221760L
sbag1
(g2
g3
Ntp137
Rp138
(dp139
g7
L9818128662644391936L
sbag1
(g2
g3
Ntp140
Rp141
(dp142
g7
L5152962398641979392L
sbag1
(g2
g3
Ntp143
Rp144
(dp145
g7
L6034823500676464640L
sbag1
(g2
g3
Ntp146
Rp147
(dp148
g7
L962644420350443520L
sbag1
(g2
g3
Ntp149
Rp150
(dp151
g7
L9935921542351290368L
sbag1
(g2
g3
Ntp152
Rp153
(dp154
g7
L9926595690882924544L
sbag1
(g2
g3
Ntp155
Rp156
(dp157
g7
L10836786603360256000L
sbag1
(g2
g3
Ntp158
Rp159
(dp160
g7
L9861106373150900224L
sbag1
(g2
g3
Ntp161
Rp162
(dp163
g7
L6629298651489370112L
sbag1
(g2
g3
Ntp164
Rp165
(dp166
g7
L5159154848129613824L
sbag1
(g2
g3
Ntp167
Rp168
(dp169
g7
L9260944548199137280L
sbag1
(g2
g3
Ntp170
Rp171
(dp172
g7
L5959106731941298176L
sbag1
(g2
g3
Ntp173
Rp174
(dp175
g7
L3886606478420738048L
sbag1
(g2
g3
Ntp176
Rp177
(dp178
g7
L5534431360829095936L
sbag1
(g2
g3
Ntp179
Rp180
(dp181
g7
L5171192301430505472L
sbag1
(g2
g3
Ntp182
Rp183
(dp184
g7
L5154025626386038784L
sbag1
(g2
g3
Ntp185
Rp186
(dp187
g7
L7698414280315502592L
sbag1
(g2
g3
Ntp188
Rp189
(dp190
g7
L955370326298984448L
sbag1
(g2
g3
Ntp191
Rp192
(dp193
g7
L9926593629298622464L
sbag1
(g2
g3
Ntp194
Rp195
(dp196
g7
L9267000658244927488L
sbag1
(g2
g3
Ntp197
Rp198
(dp199
g7
L5220727499285069824L
sbag1
(g2
g3
Ntp200
Rp201
(dp202
g7
L4138808057553485824L
sbag1
(g2
g3
Ntp203
Rp204
(dp205
g7
L5176958140406562816L
sbag1
(g2
g3
Ntp206
Rp207
(dp208
g7
L1343376984624857088L
sbag1
(g2
g3
Ntp209
Rp210
(dp211
g7
L9801240164041752576L
sbag1
(g2
g3
Ntp212
Rp213
(dp214
g7
L6003298303284871168L
sbag1
(g2
g3
Ntp215
Rp216
(dp217
g7
L3765758055900250112L
sbag1
(g2
g3
Ntp218
Rp219
(dp220
g7
L968555394861367296L
sbag1
(g2
g3
Ntp221
Rp222
(dp223
g7
L9285648375452008448L
sbag1
(g2
g3
Ntp224
Rp225
(dp226
g7
L5220885828959469568L
sbag1
(g2
g3
Ntp227
Rp228
(dp229
g7
L5144236674363949056L
sbag1
(g2
g3
Ntp230
Rp231
(dp232
g7
L5070982811675000832L
sbag1
(g2
g3
Ntp233
Rp234
(dp235
g7
L1521090774144385024L
sbag1
(g2
g3
Ntp236
Rp237
(dp238
g7
L942096747050565632L
sbag1
(g2
g3
Ntp239
Rp240
(dp241
g7
L1346294813607067648L
sbag1
(g2
g3
Ntp242
Rp243
(dp244
g7
L5171047165895639040L
sbag1
(g2
g3
Ntp245
Rp246
(dp247
g7
L5223260774075465728L
sbag1
(g2
g3
Ntp248
Rp249
(dp250
g7
L9285525230149697536L
sbag1
(g2
g3
Ntp251
Rp252
(dp253
g7
L10326753945560547328L
sbag1
(g2
g3
Ntp254
Rp255
(dp256
g7
L5178928465243537408L
sbag1
(g2
g3
Ntp257
Rp258
(dp259
g7
L9285015056754409472L
sbag1
(g2
g3
Ntp260
Rp261
(dp262
g7
L5180951497919168512L
sbag1
(g2
g3
Ntp263
Rp264
(dp265
g7
L7858781349761515520L
sbag1
(g2
g3
Ntp266
Rp267
(dp268
g7
L5163466926575321088L
sbag1
(g2
g3
Ntp269
Rp270
(dp271
g7
L5180953696942424064L
sbag1
(g2
g3
Ntp272
Rp273
(dp274
g7
L8718968878589280256L
sbag1
(g2
g3
Ntp275
Rp276
(dp277
g7
L2233785415175766016L
sbag1
(g2
g3
Ntp278
Rp279
(dp280
g7
L958774139420672000L
sbag1
(g2
g3
Ntp281
Rp282
(dp283
g7
L9927837932863881216L
sbag1
(g2
g3
Ntp284
Rp285
(dp286
g7
L9807714088506097664L
sbag1
(g2
g3
Ntp287
Rp288
(dp289
g7
L5172173065802481664L
sbag1
(g2
g3
Ntp290
Rp291
(dp292
g7
L9926989109887238144L
sbag1
(g2
g3
Ntp293
Rp294
(dp295
g7
L9816439812784128000L
sbag1
(g2
g3
Ntp296
Rp297
(dp298
g7
L5057542381537067008L
sbag1
(g2
g3
Ntp299
Rp300
(dp301
g7
L5220023811843293184L
sbag1
(g2
g3
Ntp302
Rp303
(dp304
g7
L5221390710955048960L
sbag1
(g2
g3
Ntp305
Rp306
(dp307
g7
L9757893017628311552L
sbag1
(g2
g3
Ntp308
Rp309
(dp310
g7
L1381009694230839296L
sbag1
(g2
g3
Ntp311
Rp312
(dp313
g7
L9813625063017021440L
sbag1
(g2
g3
Ntp314
Rp315
(dp316
g7
L5171733261151371264L
sbag1
(g2
g3
Ntp317
Rp318
(dp319
g7
L5221392428941967360L
sbag1
(g2
g3
Ntp320
Rp321
(dp322
g7
L5226503233865777152L
sbag1
(g2
g3
Ntp323
Rp324
(dp325
g7
L5216575743378587648L
sbag1
(g2
g3
Ntp326
Rp327
(dp328
g7
L5159717798083035136L
sbag1
(g2
g3
Ntp329
Rp330
(dp331
g7
L9739948987863007232L
sbag1
(g2
g3
Ntp332
Rp333
(dp334
g7
L10466365534009032704L
sbag1
(g2
g3
Ntp335
Rp336
(dp337
g7
L896216325846728704L
sbag1
(g2
g3
Ntp338
Rp339
(dp340
g7
L3044433348102455296L
sbag1
(g2
g3
Ntp341
Rp342
(dp343
g7
L5248663890723602432L
sbag1
(g2
g3
Ntp344
Rp345
(dp346
g7
L5218264593238851584L
sbag1
(g2
g3
Ntp347
Rp348
(dp349
g7
L9278188189057548288L
sbag1
(g2
g3
Ntp350
Rp351
(dp352
g7
L5152047604967669760L
sbag1
(g2
g3
Ntp353
Rp354
(dp355
g7
L5226365313875968000L
sbag1
(g2
g3
Ntp356
Rp357
(dp358
g7
L1485061977125421056L
sbag1
(g2
g3
Ntp359
Rp360
(dp361
g7
L3296634927235203072L
sbag1
(g2
g3
Ntp362
Rp363
(dp364
g7
L6094789765343739904L
sbag1
(g2
g3
Ntp365
Rp366
(dp367
g7
L3588313371851620352L
sbag1
(g2
g3
Ntp368
Rp369
(dp370
g7
L1486469352008974336L
sbag1
(g2
g3
Ntp371
Rp372
(dp373
g7
L9928202970724302848L
sbag1
(g2
g3
Ntp374
Rp375
(dp376
g7
L9664905120244039680L
sbag1
(g2
g3
Ntp377
Rp378
(dp379
g7
L955370876054798336L
sbag1
(g2
g3
Ntp380
Rp381
(dp382
g7
L5062450601443459072L
sbag1
(g2
g3
Ntp383
Rp384
(dp385
g7
L5166068577245069312L
sbag1
(g2
g3
Ntp386
Rp387
(dp388
g7
L9938318477699842048L
sbag1
(g2
g3
Ntp389
Rp390
(dp391
g7
L6096747995552808960L
sbag1
(g2
g3
Ntp392
Rp393
(dp394
g7
L43628621390151680L
sbag1
(g2
g3
Ntp395
Rp396
(dp397
g7
L9263060008570978304L
sbag1
(g2
g3
Ntp398
Rp399
(dp400
g7
L4309944843393564672L
sbag1
(g2
g3
Ntp401
Rp402
(dp403
g7
L9263763421134848000L
sbag1
(g2
g3
Ntp404
Rp405
(dp406
g7
L9866260883661914112L
sbag1
(g2
g3
Ntp407
Rp408
(dp409
g7
L9923602133037350912L
sbag1
(g2
g3
Ntp410
Rp411
(dp412
g7
L9768307591766605824L
sbag1
(g2
g3
Ntp413
Rp414
(dp415
g7
L1343378084136484864L
sbag1
(g2
g3
Ntp416
Rp417
(dp418
g7
L9926600982282633216L
sbag1
(g2
g3
Ntp419
Rp420
(dp421
g7
L9801803113995173888L
sbag1
(g2
g3
Ntp422
Rp423
(dp424
g7
L1385771679090737152L
sbag1
(g2
g3
Ntp425
Rp426
(dp427
g7
L9931281603282075648L
sbag1
(g2
g3
Ntp428
Rp429
(dp430
g7
L3386706919782612992L
sbag1
(g2
g3
Ntp431
Rp432
(dp433
g7
L3765760254923505664L
sbag1
(g2
g3
Ntp434
Rp435
(dp436
g7
L1357201968954605568L
sbag1
(g2
g3
Ntp437
Rp438
(dp439
g7
L9923607012120199168L
sbag1
(g2
g3
Ntp440
Rp441
(dp442
g7
L9285366900475297792L
sbag1
(g2
g3
Ntp443
Rp444
(dp445
g7
L5177081285708873728L
sbag1
(g2
g3
Ntp446
Rp447
(dp448
g7
L5154000337618599936L
sbag1
(g2
g3
Ntp449
Rp450
(dp451
g7
L9812147319389290496L
sbag1
(g2
g3
Ntp452
Rp453
(dp454
g7
L5171944367383904256L
sbag1
(g2
g3
Ntp455
Rp456
(dp457
g7
L6924548309872803840L
sbag1
(g2
g3
Ntp458
Rp459
(dp460
g7
L9742411893909225472L
sbag1
(g2
g3
Ntp461
Rp462
(dp463
g7
L9751419093163966464L
sbag1
(g2
g3
Ntp464
Rp465
(dp466
g7
L1514335374703329280L
sbag1
(g2
g3
Ntp467
Rp468
(dp469
g7
L5171832011039440896L
sbag1
(g2
g3
Ntp470
Rp471
(dp472
g7
L9839239285897691136L
sbag1
(g2
g3
Ntp473
Rp474
(dp475
g7
L9265874758338084864L
sbag1
(g2
g3
Ntp476
Rp477
(dp478
g7
L3517311308976357376L
sbag1
(g2
g3
Ntp479
Rp480
(dp481
g7
L5182517271196598272L
sbag1
(g2
g3
Ntp482
Rp483
(dp484
g7
L5170343478453862400L
sbag1
(g2
g3
Ntp485
Rp486
(dp487
g7
L9260949547541069824L
sbag1
(g2
g3
Ntp488
Rp489
(dp490
g7
L5187020870823968768L
sbag1
(g2
g3
Ntp491
Rp492
(dp493
g7
L5222293203843022848L
sbag1
(g2
g3
Ntp494
Rp495
(dp496
g7
L1347983663467331584L
sbag1
(g2
g3
Ntp497
Rp498
(dp499
g7
L9288955706428358656L
sbag1
(g2
g3
Ntp500
Rp501
(dp502
g7
L5083438079394447360L
sbag1
(g2
g3
Ntp503
Rp504
(dp505
g7
L5222697824122044416L
sbag1
(g2
g3
Ntp506
Rp507
(dp508
g7
L9926594368032997376L
sbag1
(g2
g3
Ntp509
Rp510
(dp511
g7
L9782944290555559936L
sbag1
(g2
g3
Ntp512
Rp513
(dp514
g7
L9811994281114599424L
sbag1
(g2
g3
Ntp515
Rp516
(dp517
g7
L6090680615512834048L
sbag1
(g2
g3
Ntp518
Rp519
(dp520
g7
L5180951360480215040L
sbag1
(g2
g3
Ntp521
Rp522
(dp523
g7
L5221377310657085440L
sbag1
(g2
g3
Ntp524
Rp525
(dp526
g7
L3748121064757002240L
sbag1
(g2
g3
Ntp527
Rp528
(dp529
g7
L3715469692580659200L
sbag1
(g2
g3
Ntp530
Rp531
(dp532
g7
L3724476891835400192L
sbag1
(g2
g3
Ntp533
Rp534
(dp535
g7
L9687242798473936896L
sbag1
(g2
g3
Ntp536
Rp537
(dp538
g7
L6090680065757020160L
sbag1
(g2
g3
Ntp539
Rp540
(dp541
g7
L5151750547849609216L
sbag1
(g2
g3
Ntp542
Rp543
(dp544
g7
L5180949436334866432L
sbag1
(g2
g3
Ntp545
Rp546
(dp547
g7
L5153314242362867712L
sbag1
(g2
g3
Ntp548
Rp549
(dp550
g7
L558446353793941504L
sbag1
(g2
g3
Ntp551
Rp552
(dp553
g7
L1801439850948198400L
sbag1
(g2
g3
Ntp554
Rp555
(dp556
g7
L5529294442504126464L
sbag1
(g2
g3
Ntp557
Rp558
(dp559
g7
L9926593904176529408L
sbag1
(g2
g3
Ntp560
Rp561
(dp562
g7
L9923189197701644288L
sbag1
(g2
g3
Ntp563
Rp564
(dp565
g7
L5075556780046548992L
sbag1
(g2
g3
Ntp566
Rp567
(dp568
g7
L1657324662872342528L
sbag1
(g2
g3
Ntp569
Rp570
(dp571
g7
L5172032328314126336L
sbag1
(g2
g3
Ntp572
Rp573
(dp574
g7
L10777113908297596928L
sbag1
(g2
g3
Ntp575
Rp576
(dp577
g7
L5137481274922893312L
sbag1
(g2
g3
Ntp578
Rp579
(dp580
g7
L5149936542642339840L
sbag1
(g2
g3
Ntp581
Rp582
(dp583
g7
L5149584698921451520L
sbag1
(g2
g3
Ntp584
Rp585
(dp586
g7
L6924439458221654016L
sbag1
(g2
g3
Ntp587
Rp588
(dp589
g7
L9815876862830706688L
sbag1
(g2
g3
Ntp590
Rp591
(dp592
g7
L9778440690928189440L
sbag1
(g2
g3
Ntp593
Rp594
(dp595
g7
L5180948268103761920L
sbag1
(g2
g3
Ntp596
Rp597
(dp598
g7
L5221366057842769920L
sbag1
(g2
g3
Ntp599
Rp600
(dp601
g7
L5154492918827843584L
sbag1
(g2
g3
Ntp602
Rp603
(dp604
g7
L5180949522234212352L
sbag1
(g2
g3
Ntp605
Rp606
(dp607
g7
L5221589516401246208L
sbag1
(g2
g3
Ntp608
Rp609
(dp610
g7
L9926595553443971072L
sbag1
(g2
g3
Ntp611
Rp612
(dp613
g7
L9805462288692412416L
sbag1
(g2
g3
Ntp614
Rp615
(dp616
g7
L9278196160516849664L
sbag1
(g2
g3
Ntp617
Rp618
(dp619
g7
L9935909447723384832L
sbag1
(g2
g3
Ntp620
Rp621
(dp622
g7
L1338694989235879936L
sbag1
(g2
g3
Ntp623
Rp624
(dp625
g7
L1380634760765767680L
sbag1
(g2
g3
Ntp626
Rp627
(dp628
g7
L8935264806005374976L
sbag1
(g2
g3
Ntp629
Rp630
(dp631
g7
L5171803629895548928L
sbag1
(g2
g3
Ntp632
Rp633
(dp634
g7
L5221853399191912448L
sbag1
(g2
g3
Ntp635
Rp636
(dp637
g7
L10741085111278632960L
sbag1
(g2
g3
Ntp638
Rp639
(dp640
g7
L9821224887388209152L
sbag1
(g2
g3
Ntp641
Rp642
(dp643
g7
L5226505432889032704L
sbag1
(g2
g3
Ntp644
Rp645
(dp646
g7
L6093159189599748096L
sbag1
(g2
g3
Ntp647
Rp648
(dp649
g7
L9677883755498307584L
sbag1
(g2
g3
Ntp650
Rp651
(dp652
g7
L1364590687093260288L
sbag1
(g2
g3
Ntp653
Rp654
(dp655
g7
L946952190398824448L
sbag1
(g2
g3
Ntp656
Rp657
(dp658
g7
L5220107374727004160L
sbag1
(g2
g3
Ntp659
Rp660
(dp661
g7
L9823195212225183744L
sbag1
(g2
g3
Ntp662
Rp663
(dp664
g7
L5426837550981447680L
sbag1
(g2
g3
Ntp665
Rp666
(dp667
g7
L9854650040872599552L
sbag1
(g2
g3
Ntp668
Rp669
(dp670
g7
L12393906174523604992L
sbag1
(g2
g3
Ntp671
Rp672
(dp673
g7
L9829387661712818176L
sbag1
(g2
g3
Ntp674
Rp675
(dp676
g7
L4269412446747230208L
sbag1
(g2
g3
Ntp677
Rp678
(dp679
g7
L9926764809515171840L
sbag1
(g2
g3
Ntp680
Rp681
(dp682
g7
L5085197297998888960L
sbag1
(g2
g3
Ntp683
Rp684
(dp685
g7
L1381690291928432640L
sbag1
(g2
g3
Ntp686
Rp687
(dp688
g7
L6102377495087022080L
sbag1
(g2
g3
Ntp689
Rp690
(dp691
g7
L9260949221123555328L
sbag1
(g2
g3
Ntp692
Rp693
(dp694
g7
L990791918021509120L
sbag1
(g2
g3
Ntp695
Rp696
(dp697
g7
L9814680594179686400L
sbag1
(g2
g3
Ntp698
Rp699
(dp700
g7
L7871166248736784384L
sbag1
(g2
g3
Ntp701
Rp702
(dp703
g7
L1354950169140920320L
sbag1
(g2
g3
Ntp704
Rp705
(dp706
g7
L3535325707485839360L
sbag1
(g2
g3
Ntp707
Rp708
(dp709
g7
L9280511457127038976L
sbag1
(g2
g3
Ntp710
Rp711
(dp712
g7
L5228397692400435200L
sbag1
(g2
g3
Ntp713
Rp714
(dp715
g7
L5225582942633328640L
sbag1
(g2
g3
Ntp716
Rp717
(dp718
g7
L9642488277176942592L
sbag1
(g2
g3
Ntp719
Rp720
(dp721
g7
L1498207738147110912L
sbag1
(g2
g3
Ntp722
Rp723
(dp724
g7
L5532982479381594112L
sbag1
(g2
g3
Ntp725
Rp726
(dp727
g7
L1498216534240133120L
sbag1
(g2
g3
Ntp728
Rp729
(dp730
g7
L5221483963284979712L
sbag1
(g2
g3
Ntp731
Rp732
(dp733
g7
L9931786279119224832L
sbag1
(g2
g3
Ntp734
Rp735
(dp736
g7
L9926588887654727680L
sbag1
(g2
g3
Ntp737
Rp738
(dp739
g7
L5192931845334892544L
sbag1
(g2
g3
Ntp740
Rp741
(dp742
g7
L5180964760778178560L
sbag1
(g2
g3
Ntp743
Rp744
(dp745
g7
L5221224478540824576L
sbag1
(g2
g3
Ntp746
Rp747
(dp748
g7
L5207287069147136000L
sbag1
(g2
g3
Ntp749
Rp750
(dp751
g7
L9284544465777721344L
sbag1
(g2
g3
Ntp752
Rp753
(dp754
g7
L1389079010067087360L
sbag1
(g2
g3
Ntp755
Rp756
(dp757
g7
L5134628042248814592L
sbag1
(g2
g3
Ntp758
Rp759
(dp760
g7
L1459166279268040704L
sbag1
(g2
g3
Ntp761
Rp762
(dp763
g7
L5172313803290836992L
sbag1
(g2
g3
Ntp764
Rp765
(dp766
g7
L9263768094059266048L
sbag1
(g2
g3
Ntp767
Rp768
(dp769
g7
L3522940808510570496L
sbag1
(g2
g3
Ntp770
Rp771
(dp772
g7
L9278136512011042816L
sbag1
(g2
g3
Ntp773
Rp774
(dp775
g7
L9266437708291506176L
sbag1
(g2
g3
Ntp776
Rp777
(dp778
g7
L5180951841516552192L
sbag1
(g2
g3
Ntp779
Rp780
(dp781
g7
L9860842490360233984L
sbag1
(g2
g3
Ntp782
Rp783
(dp784
g7
L5158028948222771200L
sbag1
(g2
g3
Ntp785
Rp786
(dp787
g7
L5533516567154786304L
sbag1
(g2
g3
Ntp788
Rp789
(dp790
g7
L949766940165931008L
sbag1
(g2
g3
Ntp791
Rp792
(dp793
g7
L950048415142641664L
sbag1
(g2
g3
Ntp794
Rp795
(dp796
g7
L9932407503188918272L
sbag1
(g2
g3
Ntp797
Rp798
(dp799
g7
L5221366160921985024L
sbag1
(g2
g3
Ntp800
Rp801
(dp802
g7
L9861475809057832960L
sbag1
(g2
g3
Ntp803
Rp804
(dp805
g7
L9862601708964675584L
sbag1
(g2
g3
Ntp806
Rp807
(dp808
g7
L9641080902293389312L
sbag1
(g2
g3
Ntp809
Rp810
(dp811
g7
L9261036907175870464L
sbag1
(g2
g3
Ntp812
Rp813
(dp814
g7
L9923602270476304384L
sbag1
(g2
g3
Ntp815
Rp816
(dp817
g7
L5171240679942127616L
sbag1
(g2
g3
Ntp818
Rp819
(dp820
g7
L5226550512865771520L
sbag1
(g2
g3
Ntp821
Rp822
(dp823
g7
L5222785785052266496L
sbag1
(g2
g3
Ntp824
Rp825
(dp826
g7
L5221413594540802048L
sbag1
(g2
g3
Ntp827
Rp828
(dp829
g7
L5226216261330927616L
sbag1
(g2
g3
Ntp830
Rp831
(dp832
g7
L9675086597917245440L
sbag1
(g2
g3
Ntp833
Rp834
(dp835
g7
L5227834742447013888L
sbag1
(g2
g3
Ntp836
Rp837
(dp838
g7
L6093394210210185216L
sbag1
(g2
g3
Ntp839
Rp840
(dp841
g7
L9926654858352394240L
sbag1
(g2
g3
Ntp842
Rp843
(dp844
g7
L5180846013522378752L
sbag1
(g2
g3
Ntp845
Rp846
(dp847
g7
L5086534304138264576L
sbag1
(g2
g3
Ntp848
Rp849
(dp850
g7
L1385912416579092480L
sbag1
(g2
g3
Ntp851
Rp852
(dp853
g7
L10101573964192022528L
sbag1
(g2
g3
Ntp854
Rp855
(dp856
g7
L7687644563921436672L
sbag1
(g2
g3
Ntp857
Rp858
(dp859
g7
L9926595055227764736L
sbag1
(g2
g3
Ntp860
Rp861
(dp862
g7
L961237045466890240L
sbag1
(g2
g3
Ntp863
Rp864
(dp865
g7
L5151273548781715456L
sbag1
(g2
g3
Ntp866
Rp867
(dp868
g7
L969118344814788608L
sbag1
(g2
g3
Ntp869
Rp870
(dp871
g7
L5219865482168893440L
sbag1
(g2
g3
Ntp872
Rp873
(dp874
g7
L9935222252956024832L
sbag1
(g2
g3
Ntp875
Rp876
(dp877
g7
L950540996351885312L
sbag1
(g2
g3
Ntp878
Rp879
(dp880
g7
L5063453356047990784L
sbag1
(g2
g3
Ntp881
Rp882
(dp883
g7
L5168232416128532480L
sbag1
(g2
g3
Ntp884
Rp885
(dp886
g7
L1382429644778635264L
sbag1
(g2
g3
Ntp887
Rp888
(dp889
g7
L5177116470080962560L
sbag1
(g2
g3
Ntp890
Rp891
(dp892
g7
L9278197260028477440L
sbag1
(g2
g3
Ntp893
Rp894
(dp895
g7
L5156269729618329600L
sbag1
(g2
g3
Ntp896
Rp897
(dp898
g7
L5957136407104323584L
sbag1
(g2
g3
Ntp899
Rp900
(dp901
g7
L5171909183011815424L
sbag1
(g2
g3
Ntp902
Rp903
(dp904
g7
L9926619673980305408L
sbag1
(g2
g3
Ntp905
Rp906
(dp907
g7
L9812024174086979584L
sbag1
(g2
g3
Ntp908
Rp909
(dp910
g7
L9278822607266775040L
sbag1
(g2
g3
Ntp911
Rp912
(dp913
g7
L9737908294281854976L
sbag1
(g2
g3
Ntp914
Rp915
(dp916
g7
L9260956917704949760L
sbag1
(g2
g3
Ntp917
Rp918
(dp919
g7
L5070842074186645504L
sbag1
(g2
g3
Ntp920
Rp921
(dp922
g7
L9714264396238159872L
sbag1
(g2
g3
Ntp923
Rp924
(dp925
g7
L5221363841639645184L
sbag1
(g2
g3
Ntp926
Rp927
(dp928
g7
L9921711454073913344L
sbag1
(g2
g3
Ntp929
Rp930
(dp931
g7
L5225934786354216960L
sbag1
(g2
g3
Ntp932
Rp933
(dp934
g7
L9832483886456635392L
sbag1
(g2
g3
Ntp935
Rp936
(dp937
g7
L5171831873600487424L
sbag1
(g2
g3
Ntp938
Rp939
(dp940
g7
L9841491085711376384L
sbag1
(g2
g3
Ntp941
Rp942
(dp943
g7
L942659697003986944L
sbag1
(g2
g3
Ntp944
Rp945
(dp946
g7
L9263851656942977024L
sbag1
(g2
g3
Ntp947
Rp948
(dp949
g7
L9264185908477820928L
sbag1
(g2
g3
Ntp950
Rp951
(dp952
g7
L9928396484770791424L
sbag1
(g2
g3
Ntp953
Rp954
(dp955
g7
L1344605963746803712L
sbag1
(g2
g3
Ntp956
Rp957
(dp958
g7
L9926595089587503104L
sbag1
(g2
g3
Ntp959
Rp960
(dp961
g7
L9926595123947241472L
sbag1
(g2
g3
Ntp962
Rp963
(dp964
g7
L5156973417060106240L
sbag1
(g2
g3
Ntp965
Rp966
(dp967
g7
L5156691942083395584L
sbag1
(g2
g3
Ntp968
Rp969
(dp970
g7
L9260949513181331456L
sbag1
(g2
g3
Ntp971
Rp972
(dp973
g7
L9260949616260546560L
sbag1
(g2
g3
Ntp974
Rp975
(dp976
g7
L9934659303002603520L
sbag1
(g2
g3
Ntp977
Rp978
(dp979
g7
L9934096353049182208L
sbag1
(g2
g3
Ntp980
Rp981
(dp982
g7
L955365653374566400L
sbag1
(g2
g3
Ntp983
Rp984
(dp985
g7
L5222328388215111680L
sbag1
(g2
g3
Ntp986
Rp987
(dp988
g7
L9285560414521786368L
sbag1
(g2
g3
Ntp989
Rp990
(dp991
g7
L1346857763560488960L
sbag1
(g2
g3
Ntp992
Rp993
(dp994
g7
L953637221095702528L
sbag1
(g2
g3
Ntp995
Rp996
(dp997
g7
L9787447890182930432L
sbag1
(g2
g3
Ntp998
Rp999
(dp1000
g7
L5163095497803563008L
sbag1
(g2
g3
Ntp1001
Rp1002
(dp1003
g7
L5081186279580762112L
sbag1
(g2
g3
Ntp1004
Rp1005
(dp1006
g7
L5221382808215224320L
sbag1
(g2
g3
Ntp1007
Rp1008
(dp1009
g7
L9260949702159892480L
sbag1
(g2
g3
Ntp1010
Rp1011
(dp1012
g7
L9260949977037799424L
sbag1
(g2
g3
Ntp1013
Rp1014
(dp1015
g7
L7715427023732080640L
sbag1
(g2
g3
Ntp1016
Rp1017
(dp1018
g7
L5178787727755182080L
sbag1
(g2
g3
Ntp1019
Rp1020
(dp1021
g7
L9785196090369245184L
sbag1
(g2
g3
Ntp1022
Rp1023
(dp1024
g7
L5178295146545938432L
sbag1
(g2
g3
Ntp1025
Rp1026
(dp1027
g7
L9811994143675645952L
sbag1
(g2
g3
Ntp1028
Rp1029
(dp1030
g7
L5217152986983170048L
sbag1
(g2
g3
Ntp1031
Rp1032
(dp1033
g7
L1381408816951721984L
sbag1
(g2
g3
Ntp1034
Rp1035
(dp1036
g7
L1381127341975011328L
sbag1
(g2
g3
Ntp1037
Rp1038
(dp1039
g7
L4629700416936869888L
sbag1
(g2
g3
Ntp1040
Rp1041
(dp1042
g7
L1381268079463366656L
sbag1
(g2
g3
Ntp1043
Rp1044
(dp1045
g7
L5221375111633829888L
sbag1
(g2
g3
Ntp1046
Rp1047
(dp1048
g7
L945474446771093504L
sbag1
(g2
g3
Ntp1049
Rp1050
(dp1051
g7
L3748121614512816128L
sbag1
(g2
g3
Ntp1052
Rp1053
(dp1054
g7
L6093458256762503168L
sbag1
(g2
g3
Ntp1055
Rp1056
(dp1057
g7
L7885802947525738496L
sbag1
(g2
g3
Ntp1058
Rp1059
(dp1060
g7
L5141984874550263808L
sbag1
(g2
g3
Ntp1061
Rp1062
(dp1063
g7
L5160914066734055424L
sbag1
(g2
g3
Ntp1064
Rp1065
(dp1066
g7
L9919459654260228096L
sbag1
(g2
g3
Ntp1067
Rp1068
(dp1069
g7
L5163467064014274560L
sbag1
(g2
g3
Ntp1070
Rp1071
(dp1072
g7
L1372471986441158656L
sbag1
(g2
g3
Ntp1073
Rp1074
(dp1075
g7
L1376975586068529152L
sbag1
(g2
g3
Ntp1076
Rp1077
(dp1078
g7
L49539595901075456L
sbag1
(g2
g3
Ntp1079
Rp1080
(dp1081
g7
L9804125282553036800L
sbag1
(g2
g3
Ntp1082
Rp1083
(dp1084
g7
L5222363572587200512L
sbag1
(g2
g3
Ntp1085
Rp1086
(dp1087
g7
L5180949711212773376L
sbag1
(g2
g3
Ntp1088
Rp1089
(dp1090
g7
L9859505484220858368L
sbag1
(g2
g3
Ntp1091
Rp1092
(dp1093
g7
L5153736454827933696L
sbag1
(g2
g3
Ntp1094
Rp1095
(dp1096
g7
L522417556774977536L
sbag1
(g2
g3
Ntp1097
Rp1098
(dp1099
g7
L5169499053523730432L
sbag1
(g2
g3
Ntp1100
Rp1101
(dp1102
g7
L5179421046452781056L
sbag1
(g2
g3
Ntp1103
Rp1104
(dp1105
g7
L5152469817432735744L
sbag1
(g2
g3
Ntp1106
Rp1107
(dp1108
g7
L5524790842876755968L
sbag1
(g2
g3
Ntp1109
Rp1110
(dp1111
g7
L5180954865173528576L
sbag1
(g2
g3
Ntp1112
Rp1113
(dp1114
g7
L9926597408869842944L
sbag1
(g2
g3
Ntp1115
Rp1116
(dp1117
g7
L9889904781705609216L
sbag1
(g2
g3
Ntp1118
Rp1119
(dp1120
g7
L9927846728956903424L
sbag1
(g2
g3
Ntp1121
Rp1122
(dp1123
g7
L5169921265988796416L
sbag1
(g2
g3
Ntp1124
Rp1125
(dp1126
g7
L5169358316035375104L
sbag1
(g2
g3
Ntp1127
Rp1128
(dp1129
g7
L9811373263203336192L
sbag1
(g2
g3
Ntp1130
Rp1131
(dp1132
g7
L7696933238152888320L
sbag1
(g2
g3
Ntp1133
Rp1134
(dp1135
g7
L5102578377810771968L
sbag1
(g2
g3
Ntp1136
Rp1137
(dp1138
g7
L1353613163001544704L
sbag1
(g2
g3
Ntp1139
Rp1140
(dp1141
g7
L6095041553506500608L
sbag1
(g2
g3
Ntp1142
Rp1143
(dp1144
g7
L5221366246821330944L
sbag1
(g2
g3
Ntp1145
Rp1146
(dp1147
g7
L7421932185906577408L
sbag1
(g2
g3
Ntp1148
Rp1149
(dp1150
g7
L7723673360940400640L
sbag1
(g2
g3
Ntp1151
Rp1152
(dp1153
g7
L3598376102269026304L
sbag1
(g2
g3
Ntp1154
Rp1155
(dp1156
g7
L7741687759449882624L
sbag1
(g2
g3
Ntp1157
Rp1158
(dp1159
g7
L5150077280130695168L
sbag1
(g2
g3
Ntp1160
Rp1161
(dp1162
g7
L5150218017619050496L
sbag1
(g2
g3
Ntp1163
Rp1164
(dp1165
g7
L5223032075656888320L
sbag1
(g2
g3
Ntp1166
Rp1167
(dp1168
g7
L5221366521699237888L
sbag1
(g2
g3
Ntp1169
Rp1170
(dp1171
g7
L6108006994621235200L
sbag1
(g2
g3
Ntp1172
Rp1173
(dp1174
g7
L1343356918537650176L
sbag1
(g2
g3
Ntp1175
Rp1176
(dp1177
g7
L9817002762737549312L
sbag1
(g2
g3
Ntp1178
Rp1179
(dp1180
g7
L9927340953608126464L
sbag1
(g2
g3
Ntp1181
Rp1182
(dp1183
g7
L9675057735737016320L
sbag1
(g2
g3
Ntp1184
Rp1185
(dp1186
g7
L9263761703147929600L
sbag1
(g2
g3
Ntp1187
Rp1188
(dp1189
g7
L5065705155861676032L
sbag1
(g2
g3
Ntp1190
Rp1191
(dp1192
g7
L5066268105815097344L
sbag1
(g2
g3
Ntp1193
Rp1194
(dp1195
g7
L959759301839159296L
sbag1
(g2
g3
Ntp1196
Rp1197
(dp1198
g7
L5221366092202508288L
sbag1
(g2
g3
Ntp1199
Rp1200
(dp1201
g7
L1375005261231554560L
sbag1
(g2
g3
Ntp1202
Rp1203
(dp1204
g7
L9926595020868026368L
sbag1
(g2
g3
Ntp1205
Rp1206
(dp1207
g7
L5168724997337776128L
sbag1
(g2
g3
Ntp1208
Rp1209
(dp1210
g7
L5221519147657068544L
sbag1
(g2
g3
Ntp1211
Rp1212
(dp1213
g7
L5217349799564541952L
sbag1
(g2
g3
Ntp1214
Rp1215
(dp1216
g7
L5221390229918711808L
sbag1
(g2
g3
Ntp1217
Rp1218
(dp1219
g7
L955044595979255808L
sbag1
(g2
g3
Ntp1220
Rp1221
(dp1222
g7
L5570952739057303552L
sbag1
(g2
g3
Ntp1223
Rp1224
(dp1225
g7
L9758455967581732864L
sbag1
(g2
g3
Ntp1226
Rp1227
(dp1228
g7
L956733445839519744L
sbag1
(g2
g3
Ntp1229
Rp1230
(dp1231
g7
L1390486384950640640L
sbag1
(g2
g3
Ntp1232
Rp1233
(dp1234
g7
L1394989984578011136L
sbag1
(g2
g3
Ntp1235
Rp1236
(dp1237
g7
L9935916044793151488L
sbag1
(g2
g3
Ntp1238
Rp1239
(dp1240
g7
L3850577681401774080L
sbag1
(g2
g3
Ntp1241
Rp1242
(dp1243
g7
L9926215053701283840L
sbag1
(g2
g3
Ntp1244
Rp1245
(dp1246
g7
L9937122209048821760L
sbag1
(g2
g3
Ntp1247
Rp1248
(dp1249
g7
L10714063513514409984L
sbag1
(g2
g3
Ntp1250
Rp1251
(dp1252
g7
L5185050545986994176L
sbag1
(g2
g3
Ntp1253
Rp1254
(dp1255
g7
L9926594866249203712L
sbag1
(g2
g3
Ntp1256
Rp1257
(dp1258
g7
L6014275827376586752L
sbag1
(g2
g3
Ntp1259
Rp1260
(dp1261
g7
L6917880871361970176L
sbag1
(g2
g3
Ntp1262
Rp1263
(dp1264
g7
L5976276705520648192L
sbag1
(g2
g3
Ntp1265
Rp1266
(dp1267
g7
L9259682308850450432L
sbag1
(g2
g3
Ntp1268
Rp1269
(dp1270
g7
L5536049841945182208L
sbag1
(g2
g3
Ntp1271
Rp1272
(dp1273
g7
L6090344439832641536L
sbag1
(g2
g3
Ntp1274
Rp1275
(dp1276
g7
L10750092310533373952L
sbag1
(g2
g3
Ntp1277
Rp1278
(dp1279
g7
L9804287185640226816L
sbag1
(g2
g3
Ntp1280
Rp1281
(dp1282
g7
L6093374693878792192L
sbag1
(g2
g3
Ntp1283
Rp1284
(dp1285
g7
L5163468232245379072L
sbag1
(g2
g3
Ntp1286
Rp1287
(dp1288
g7
L5215449843471745024L
sbag1
(g2
g3
Ntp1289
Rp1290
(dp1291
g7
L10358279142952140800L
sbag1
(g2
g3
Ntp1292
Rp1293
(dp1294
g7
L1342354163933118464L
sbag1
(g2
g3
Ntp1295
Rp1296
(dp1297
g7
L5216012793425166336L
sbag1
(g2
g3
Ntp1298
Rp1299
(dp1300
g7
L6090485177320996864L
sbag1
(g2
g3
Ntp1301
Rp1302
(dp1303
g7
L10722525355001774080L
sbag1
(g2
g3
Ntp1304
Rp1305
(dp1306
g7
L10862682301217636352L
sbag1
(g2
g3
Ntp1307
Rp1308
(dp1309
g7
L9803822521718407168L
sbag1
(g2
g3
Ntp1310
Rp1311
(dp1312
g7
L5123970476040781824L
sbag1
(g2
g3
Ntp1313
Rp1314
(dp1315
g7
L3775142387643318272L
sbag1
(g2
g3
Ntp1316
Rp1317
(dp1318
g7
L9824321112132026368L
sbag1
(g2
g3
Ntp1319
Rp1320
(dp1321
g7
L5164221397710405632L
sbag1
(g2
g3
Ntp1322
Rp1323
(dp1324
g7
L3592211965205807104L
sbag1
(g2
g3
Ntp1325
Rp1326
(dp1327
g7
L5164784347663826944L
sbag1
(g2
g3
Ntp1328
Rp1329
(dp1330
g7
L5213760993611481088L
sbag1
(g2
g3
Ntp1331
Rp1332
(dp1333
g7
L5214886893518323712L
sbag1
(g2
g3
Ntp1334
Rp1335
(dp1336
g7
L10789727505691443200L
sbag1
(g2
g3
Ntp1337
Rp1338
(dp1339
g7
L9923629002352754688L
sbag1
(g2
g3
Ntp1340
Rp1341
(dp1342
g7
L13546827679130451968L
sbag1
(g2
g3
Ntp1343
Rp1344
(dp1345
g7
L5221308041424535552L
sbag1
(g2
g3
Ntp1346
Rp1347
(dp1348
g7
L4971973988617027584L
sbag1
(g2
g3
Ntp1349
Rp1350
(dp1351
g7
L957296395792941056L
sbag1
(g2
g3
Ntp1352
Rp1353
(dp1354
g7
L5153877192316289024L
sbag1
(g2
g3
Ntp1355
Rp1356
(dp1357
g7
L5155988254641618944L
sbag1
(g2
g3
Ntp1358
Rp1359
(dp1360
g7
L4197354852709302272L
sbag1
(g2
g3
Ntp1361
Rp1362
(dp1363
g7
L5085338035487244288L
sbag1
(g2
g3
Ntp1364
Rp1365
(dp1366
g7
L1381831029416787968L
sbag1
(g2
g3
Ntp1367
Rp1368
(dp1369
g7
L5248100940770181120L
sbag1
(g2
g3
Ntp1370
Rp1371
(dp1372
g7
L5172454540779192320L
sbag1
(g2
g3
Ntp1373
Rp1374
(dp1375
g7
L5221659885145423872L
sbag1
(g2
g3
Ntp1376
Rp1377
(dp1378
g7
L9828261761805975552L
sbag1
(g2
g3
Ntp1379
Rp1380
(dp1381
g7
L4593671619917905920L
sbag1
(g2
g3
Ntp1382
Rp1383
(dp1384
g7
L9936137046630334464L
sbag1
(g2
g3
Ntp1385
Rp1386
(dp1387
g7
L940337528446124032L
sbag1
(g2
g3
Ntp1388
Rp1389
(dp1390
g7
L9681894773916434432L
sbag1
(g2
g3
Ntp1391
Rp1392
(dp1393
g7
L6924354795826315264L
sbag1
(g2
g3
Ntp1394
Rp1395
(dp1396
g7
L5151906867479314432L
sbag1
(g2
g3
Ntp1397
Rp1398
(dp1399
g7
L5223823724028887040L
sbag1
(g2
g3
Ntp1400
Rp1401
(dp1402
g7
L5155548449990508544L
sbag1
(g2
g3
Ntp1403
Rp1404
(dp1405
g7
L5122563101157228544L
sbag1
(g2
g3
Ntp1406
Rp1407
(dp1408
g7
L1382429988376018944L
sbag1
(g2
g3
Ntp1409
Rp1410
(dp1411
g7
L5067605111954472960L
sbag1
(g2
g3
Ntp1412
Rp1413
(dp1414
g7
L5534712835805806592L
sbag1
(g2
g3
Ntp1415
Rp1416
(dp1417
g7
L5223630209982398464L
sbag1
(g2
g3
Ntp1418
Rp1419
(dp1420
g7
L9673925513638313984L
sbag1
(g2
g3
Ntp1421
Rp1422
(dp1423
g7
L5221365954763554816L
sbag1
(g2
g3
Ntp1424
Rp1425
(dp1426
g7
L3776338656294338560L
sbag1
(g2
g3
Ntp1427
Rp1428
(dp1429
g7
L5129599975574994944L
sbag1
(g2
g3
Ntp1430
Rp1431
(dp1432
g7
L3544332906740580352L
sbag1
(g2
g3
Ntp1433
Rp1434
(dp1435
g7
L882987001941327872L
sbag1
(g2
g3
Ntp1436
Rp1437
(dp1438
g7
L3224577333197275136L
sbag1
(g2
g3
Ntp1439
Rp1440
(dp1441
g7
L9643051227130363904L
sbag1
(g2
g3
Ntp1442
Rp1443
(dp1444
g7
L5154019029316272128L
sbag1
(g2
g3
Ntp1445
Rp1446
(dp1447
g7
L5526761167713730560L
sbag1
(g2
g3
Ntp1448
Rp1449
(dp1450
g7
L3592205643013947392L
sbag1
(g2
g3
Ntp1451
Rp1452
(dp1453
g7
L10281717949286842368L
sbag1
(g2
g3
Ntp1454
Rp1455
(dp1456
g7
L1382886560579452928L
sbag1
(g2
g3
Ntp1457
Rp1458
(dp1459
g7
L1343377757718970368L
sbag1
(g2
g3
Ntp1460
Rp1461
(dp1462
g7
L6093487599979069440L
sbag1
(g2
g3
Ntp1463
Rp1464
(dp1465
g7
L10245689152267878400L
sbag1
(g2
g3
Ntp1466
Rp1467
(dp1468
g7
L9926848372398882816L
sbag1
(g2
g3
Ntp1469
Rp1470
(dp1471
g7
L10254696351522619392L
sbag1
(g2
g3
Ntp1472
Rp1473
(dp1474
g7
L7715419327150686208L
sbag1
(g2
g3
Ntp1475
Rp1476
(dp1477
g7
L5194620695195156480L
sbag1
(g2
g3
Ntp1478
Rp1479
(dp1480
g7
L10722600121792462848L
sbag1
(g2
g3
Ntp1481
Rp1482
(dp1483
g7
L5150780967572471808L
sbag1
(g2
g3
Ntp1484
Rp1485
(dp1486
g7
L9864290558824939520L
sbag1
(g2
g3
Ntp1487
Rp1488
(dp1489
g7
L6090682814536089600L
sbag1
(g2
g3
Ntp1490
Rp1491
(dp1492
g7
L9735656494468169728L
sbag1
(g2
g3
Ntp1493
Rp1494
(dp1495
g7
L9788855265066483712L
sbag1
(g2
g3
Ntp1496
Rp1497
(dp1498
g7
L9790544114926747648L
sbag1
(g2
g3
Ntp1499
Rp1500
(dp1501
g7
L9920515185422893056L
sbag1
(g2
g3
Ntp1502
Rp1503
(dp1504
g7
L1382411571556253696L
sbag1
(g2
g3
Ntp1505
Rp1506
(dp1507
g7
L1388516060113666048L
sbag1
(g2
g3
Ntp1508
Rp1509
(dp1510
g7
L9935996309141979136L
sbag1
(g2
g3
Ntp1511
Rp1512
(dp1513
g7
L5067204065088241664L
sbag1
(g2
g3
Ntp1514
Rp1515
(dp1516
g7
L10782743407831810048L
sbag1
(g2
g3
Ntp1517
Rp1518
(dp1519
g7
L5160210379292278784L
sbag1
(g2
g3
Ntp1520
Rp1521
(dp1522
g7
L6093393729173848064L
sbag1
(g2
g3
Ntp1523
Rp1524
(dp1525
g7
L9926571295468683264L
sbag1
(g2
g3
Ntp1526
Rp1527
(dp1528
g7
L4486711128767856640L
sbag1
(g2
g3
Ntp1529
Rp1530
(dp1531
g7
L4493466528208912384L
sbag1
(g2
g3
Ntp1532
Rp1533
(dp1534
g7
L3778238612387135488L
sbag1
(g2
g3
Ntp1535
Rp1536
(dp1537
g7
L2089670227099910144L
sbag1
(g2
g3
Ntp1538
Rp1539
(dp1540
g7
L1380969012300611584L
sbag1
(g2
g3
Ntp1541
Rp1542
(dp1543
g7
L9804279214180925440L
sbag1
(g2
g3
Ntp1544
Rp1545
(dp1546
g7
L9926595278566064128L
sbag1
(g2
g3
Ntp1547
Rp1548
(dp1549
g7
L9869357108405731328L
sbag1
(g2
g3
Ntp1550
Rp1551
(dp1552
g7
L9268126558151770112L
sbag1
(g2
g3
Ntp1553
Rp1554
(dp1555
g7
L9762678092232392704L
sbag1
(g2
g3
Ntp1556
Rp1557
(dp1558
g7
L5067235676047540224L
sbag1
(g2
g3
Ntp1559
Rp1560
(dp1561
g7
L6090573138251218944L
sbag1
(g2
g3
Ntp1562
Rp1563
(dp1564
g7
L5220305286820003840L
sbag1
(g2
g3
Ntp1565
Rp1566
(dp1567
g7
L5220446024308359168L
sbag1
(g2
g3
Ntp1568
Rp1569
(dp1570
g7
L10705056314259668992L
sbag1
(g2
g3
Ntp1571
Rp1572
(dp1573
g7
L9923601789439967232L
sbag1
(g2
g3
Ntp1574
Rp1575
(dp1576
g7
L7768709357214105600L
sbag1
(g2
g3
Ntp1577
Rp1578
(dp1579
g7
L949907677654286336L
sbag1
(g2
g3
Ntp1580
Rp1581
(dp1582
g7
L9926596859114029056L
sbag1
(g2
g3
Ntp1583
Rp1584
(dp1585
g7
L9926596309358215168L
sbag1
(g2
g3
Ntp1586
Rp1587
(dp1588
g7
L4120793659044003840L
sbag1
(g2
g3
Ntp1589
Rp1590
(dp1591
g7
L6090766652297707520L
sbag1
(g2
g3
Ntp1592
Rp1593
(dp1594
g7
L5221364941151272960L
sbag1
(g2
g3
Ntp1595
Rp1596
(dp1597
g7
L5163465208588402688L
sbag1
(g2
g3
Ntp1598
Rp1599
(dp1600
g7
L7715435819825102848L
sbag1
(g2
g3
Ntp1601
Rp1602
(dp1603
g7
L9263762871379034112L
sbag1
(g2
g3
Ntp1604
Rp1605
(dp1606
g7
L9868723789708132352L
sbag1
(g2
g3
Ntp1607
Rp1608
(dp1609
g7
L1344043013793382400L
sbag1
(g2
g3
Ntp1610
Rp1611
(dp1612
g7
L5163728816501161984L
sbag1
(g2
g3
Ntp1613
Rp1614
(dp1615
g7
L5836665117072162816L
sbag1
(g2
g3
Ntp1616
Rp1617
(dp1618
g7
L5154023427362783232L
sbag1
(g2
g3
Ntp1619
Rp1620
(dp1621
g7
L1526720273678598144L
sbag1
(g2
g3
Ntp1622
Rp1623
(dp1624
g7
L5177239615383273472L
sbag1
(g2
g3
Ntp1625
Rp1626
(dp1627
g7
L9923602407915257856L
sbag1
(g2
g3
Ntp1628
Rp1629
(dp1630
g7
L1343691170072494080L
sbag1
(g2
g3
Ntp1631
Rp1632
(dp1633
g7
L1382429369900728320L
sbag1
(g2
g3
Ntp1634
Rp1635
(dp1636
g7
L7715457810057658368L
sbag1
(g2
g3
Ntp1637
Rp1638
(dp1639
g7
L10178135157857320960L
sbag1
(g2
g3
Ntp1640
Rp1641
(dp1642
g7
L5221448778912890880L
sbag1
(g2
g3
Ntp1643
Rp1644
(dp1645
g7
L6120391893596504064L
sbag1
(g2
g3
Ntp1646
Rp1647
(dp1648
g7
L5222856153796444160L
sbag1
(g2
g3
Ntp1649
Rp1650
(dp1651
g7
L3765778946621177856L
sbag1
(g2
g3
Ntp1652
Rp1653
(dp1654
g7
L5217169479657586688L
sbag1
(g2
g3
Ntp1655
Rp1656
(dp1657
g7
L1488158201869238272L
sbag1
(g2
g3
Ntp1658
Rp1659
(dp1660
g7
L1343378633892298752L
sbag1
(g2
g3
Ntp1661
Rp1662
(dp1663
g7
L5217143091378520064L
sbag1
(g2
g3
Ntp1664
Rp1665
(dp1666
g7
L9261001722803781632L
sbag1
(g2
g3
Ntp1667
Rp1668
(dp1669
g7
L6093392560942743552L
sbag1
(g2
g3
Ntp1670
Rp1671
(dp1672
g7
L5150358755107405824L
sbag1
(g2
g3
Ntp1673
Rp1674
(dp1675
g7
L3748133984018628608L
sbag1
(g2
g3
Ntp1676
Rp1677
(dp1678
g7
L9800677214088331264L
sbag1
(g2
g3
Ntp1679
Rp1680
(dp1681
g7
L9926580091561705472L
sbag1
(g2
g3
Ntp1682
Rp1683
(dp1684
g7
L9926725227096571904L
sbag1
(g2
g3
Ntp1685
Rp1686
(dp1687
g7
L8935229621633286144L
sbag1
(g2
g3
Ntp1688
Rp1689
(dp1690
g7
L1385490204114026496L
sbag1
(g2
g3
Ntp1691
Rp1692
(dp1693
g7
L1385630941602381824L
sbag1
(g2
g3
Ntp1694
Rp1695
(dp1696
g7
L9930718653328654336L
sbag1
(g2
g3
Ntp1697
Rp1698
(dp1699
g7
L5220921013331558400L
sbag1
(g2
g3
Ntp1700
Rp1701
(dp1702
g7
L9803823191733305344L
sbag1
(g2
g3
Ntp1703
Rp1704
(dp1705
g7
L937874622399905792L
sbag1
(g2
g3
Ntp1706
Rp1707
(dp1708
g7
L1496320976193847296L
sbag1
(g2
g3
Ntp1709
Rp1710
(dp1711
g7
L9260949581900808192L
sbag1
(g2
g3
Ntp1712
Rp1713
(dp1714
g7
L9926594986508288000L
sbag1
(g2
g3
Ntp1715
Rp1716
(dp1717
g7
L9279930914987573248L
sbag1
(g2
g3
Ntp1718
Rp1719
(dp1720
g7
L5220146957145604096L
sbag1
(g2
g3
Ntp1721
Rp1722
(dp1723
g7
L5220217325889781760L
sbag1
(g2
g3
Ntp1724
Rp1725
(dp1726
g7
L3765762453946761216L
sbag1
(g2
g3
Ntp1727
Rp1728
(dp1729
g7
L5226370192958816256L
sbag1
(g2
g3
Ntp1730
Rp1731
(dp1732
g7
L1342917113886539776L
sbag1
(g2
g3
Ntp1733
Rp1734
(dp1735
g7
L970244244721631232L
sbag1
(g2
g3
Ntp1736
Rp1737
(dp1738
g7
L1357061231466250240L
sbag1
(g2
g3
Ntp1739
Rp1740
(dp1741
g7
L1356920493977894912L
sbag1
(g2
g3
Ntp1742
Rp1743
(dp1744
g7
L5219900666540982272L
sbag1
(g2
g3
Ntp1745
Rp1746
(dp1747
g7
L6093497839181103104L
sbag1
(g2
g3
Ntp1748
Rp1749
(dp1750
g7
L5221391329430339584L
sbag1
(g2
g3
Ntp1751
Rp1752
(dp1753
g7
L2594073385365405696L
sbag1
(g2
g3
Ntp1754
Rp1755
(dp1756
g7
L1423137482249076736L
sbag1
(g2
g3
Ntp1757
Rp1758
(dp1759
g7
L5167950941151821824L
sbag1
(g2
g3
Ntp1760
Rp1761
(dp1762
g7
L7566047373982433280L
sbag1
(g2
g3
Ntp1763
Rp1764
(dp1765
g7
L9942822077327212544L
sbag1
(g2
g3
Ntp1766
Rp1767
(dp1768
g7
L5278218763278221312L
sbag1
(g2
g3
Ntp1769
Rp1770
(dp1771
g7
L10732077912023891968L
sbag1
(g2
g3
Ntp1772
Rp1773
(dp1774
g7
L1343462471653916672L
sbag1
(g2
g3
Ntp1775
Rp1776
(dp1777
g7
L5177151654453051392L
sbag1
(g2
g3
Ntp1778
Rp1779
(dp1780
g7
L9931914921979674624L
sbag1
(g2
g3
Ntp1781
Rp1782
(dp1783
g7
L3748126287437234176L
sbag1
(g2
g3
Ntp1784
Rp1785
(dp1786
g7
L5156128992129974272L
sbag1
(g2
g3
Ntp1787
Rp1788
(dp1789
g7
L5156551204595040256L
sbag1
(g2
g3
Ntp1790
Rp1791
(dp1792
g7
L5217701643285430272L
sbag1
(g2
g3
Ntp1793
Rp1794
(dp1795
g7
L5180949848651726848L
sbag1
(g2
g3
Ntp1796
Rp1797
(dp1798
g7
L5135510950085918720L
sbag1
(g2
g3
Ntp1799
Rp1800
(dp1801
g7
L5171873998639726592L
sbag1
(g2
g3
Ntp1802
Rp1803
(dp1804
g7
L7754072658425151488L
sbag1
(g2
g3
Ntp1805
Rp1806
(dp1807
g7
L10813142705316560896L
sbag1
(g2
g3
Ntp1808
Rp1809
(dp1810
g7
L10822149904571301888L
sbag1
(g2
g3
Ntp1811
Rp1812
(dp1813
g7
L9803813021250748416L
sbag1
(g2
g3
Ntp1814
Rp1815
(dp1816
g7
L6924477941128626176L
sbag1
(g2
g3
Ntp1817
Rp1818
(dp1819
g7
L6924513125500715008L
sbag1
(g2
g3
Ntp1820
Rp1821
(dp1822
g7
L9780692490741874688L
sbag1
(g2
g3
Ntp1823
Rp1824
(dp1825
g7
L8937111985540038656L
sbag1
(g2
g3
Ntp1826
Rp1827
(dp1828
g7
L9260956367949135872L
sbag1
(g2
g3
Ntp1829
Rp1830
(dp1831
g7
L9260957467460763648L
sbag1
(g2
g3
Ntp1832
Rp1833
(dp1834
g7
L9740441569072250880L
sbag1
(g2
g3
Ntp1835
Rp1836
(dp1837
g7
L5171768445523460096L
sbag1
(g2
g3
Ntp1838
Rp1839
(dp1840
g7
L10721100387932176384L
sbag1
(g2
g3
Ntp1841
Rp1842
(dp1843
g7
L9723271595492900864L
sbag1
(g2
g3
Ntp1844
Rp1845
(dp1846
g7
L9749167293350281216L
sbag1
(g2
g3
Ntp1847
Rp1848
(dp1849
g7
L6924441657244909568L
sbag1
(g2
g3
Ntp1850
Rp1851
(dp1852
g7
L10722226287839019008L
sbag1
(g2
g3
Ntp1853
Rp1854
(dp1855
g7
L946600346677936128L
sbag1
(g2
g3
Ntp1856
Rp1857
(dp1858
g7
L9823758162178605056L
sbag1
(g2
g3
Ntp1859
Rp1860
(dp1861
g7
L5170624953430573056L
sbag1
(g2
g3
Ntp1862
Rp1863
(dp1864
g7
L9922274404027334656L
sbag1
(g2
g3
Ntp1865
Rp1866
(dp1867
g7
L9922837353980755968L
sbag1
(g2
g3
Ntp1868
Rp1869
(dp1870
g7
L5171832148478394368L
sbag1
(g2
g3
Ntp1871
Rp1872
(dp1873
g7
L6092525870902149120L
sbag1
(g2
g3
Ntp1874
Rp1875
(dp1876
g7
L9834735686270320640L
sbag1
(g2
g3
Ntp1877
Rp1878
(dp1879
g7
L941533797097144320L
sbag1
(g2
g3
Ntp1880
Rp1881
(dp1882
g7
L10722610017397112832L
sbag1
(g2
g3
Ntp1883
Rp1884
(dp1885
g7
L943222646957408256L
sbag1
(g2
g3
Ntp1886
Rp1887
(dp1888
g7
L1382253241881853952L
sbag1
(g2
g3
Ntp1889
Rp1890
(dp1891
g7
L6918373452571213824L
sbag1
(g2
g3
Ntp1892
Rp1893
(dp1894
g7
L971651619605184512L
sbag1
(g2
g3
Ntp1895
Rp1896
(dp1897
g7
L9263886841315065856L
sbag1
(g2
g3
Ntp1898
Rp1899
(dp1900
g7
L7715387441313480704L
sbag1
(g2
g3
Ntp1901
Rp1902
(dp1903
g7
L6931039826523193344L
sbag1
(g2
g3
Ntp1904
Rp1905
(dp1906
g7
L9928677959747502080L
sbag1
(g2
g3
Ntp1907
Rp1908
(dp1909
g7
L1345731863653646336L
sbag1
(g2
g3
Ntp1910
Rp1911
(dp1912
g7
L9286140956661252096L
sbag1
(g2
g3
Ntp1913
Rp1914
(dp1915
g7
L964262901466529792L
sbag1
(g2
g3
Ntp1916
Rp1917
(dp1918
g7
L5155214198455664640L
sbag1
(g2
g3
Ntp1919
Rp1920
(dp1921
g7
L5165699141338136576L
sbag1
(g2
g3
Ntp1922
Rp1923
(dp1924
g7
L5170906428407283712L
sbag1
(g2
g3
Ntp1925
Rp1926
(dp1927
g7
L5165980616314847232L
sbag1
(g2
g3
Ntp1928
Rp1929
(dp1930
g7
L5157114154548461568L
sbag1
(g2
g3
Ntp1931
Rp1932
(dp1933
g7
L5170484215942217728L
sbag1
(g2
g3
Ntp1934
Rp1935
(dp1936
g7
L9927692797329014784L
sbag1
(g2
g3
Ntp1937
Rp1938
(dp1939
g7
L9263829666710421504L
sbag1
(g2
g3
Ntp1940
Rp1941
(dp1942
g7
L9927974272305725440L
sbag1
(g2
g3
Ntp1943
Rp1944
(dp1945
g7
L5219320124401516544L
sbag1
(g2
g3
Ntp1946
Rp1947
(dp1948
g7
L9932970453142339584L
sbag1
(g2
g3
Ntp1949
Rp1950
(dp1951
g7
L9278176094429642752L
sbag1
(g2
g3
Ntp1952
Rp1953
(dp1954
g7
L5151749362438635520L
sbag1
(g2
g3
Ntp1955
Rp1956
(dp1957
g7
L5223120036587110400L
sbag1
(g2
g3
Ntp1958
Rp1959
(dp1960
g7
L5223401511563821056L
sbag1
(g2
g3
Ntp1961
Rp1962
(dp1963
g7
L5222258019470934016L
sbag1
(g2
g3
Ntp1964
Rp1965
(dp1966
g7
L9278330026057531392L
sbag1
(g2
g3
Ntp1967
Rp1968
(dp1969
g7
L9285454861405519872L
sbag1
(g2
g3
Ntp1970
Rp1971
(dp1972
g7
L9279385557220196352L
sbag1
(g2
g3
Ntp1973
Rp1974
(dp1975
g7
L5226779211284348928L
sbag1
(g2
g3
Ntp1976
Rp1977
(dp1978
g7
L5226638473795993600L
sbag1
(g2
g3
Ntp1979
Rp1980
(dp1981
g7
L5222891338168532992L
sbag1
(g2
g3
Ntp1982
Rp1983
(dp1984
g7
L5226919948772704256L
sbag1
(g2
g3
Ntp1985
Rp1986
(dp1987
g7
L9290081606335201280L
sbag1
(g2
g3
Ntp1988
Rp1989
(dp1990
g7
L9260952244780531712L
sbag1
(g2
g3
Ntp1991
Rp1992
(dp1993
g7
L9803861399762370560L
sbag1
(g2
g3
Ntp1994
Rp1995
(dp1996
g7
L5162532547850141696L
sbag1
(g2
g3
Ntp1997
Rp1998
(dp1999
g7
L5226510930447171584L
sbag1
(g2
g3
Ntp2000
Rp2001
(dp2002
g7
L3592213339595341824L
sbag1
(g2
g3
Ntp2003
Rp2004
(dp2005
g7
L5156410467106684928L
sbag1
(g2
g3
Ntp2006
Rp2007
(dp2008
g7
L10317746746305806336L
sbag1
(g2
g3
Ntp2009
Rp2010
(dp2011
g7
L10335761144815288320L
sbag1
(g2
g3
Ntp2012
Rp2013
(dp2014
g7
L9811994418553552896L
sbag1
(g2
g3
Ntp2015
Rp2016
(dp2017
g7
L9260949839598845952L
sbag1
(g2
g3
Ntp2018
Rp2019
(dp2020
g7
L5165347297617248256L
sbag1
(g2
g3
Ntp2021
Rp2022
(dp2023
g7
L9926594333673259008L
sbag1
(g2
g3
Ntp2024
Rp2025
(dp2026
g7
L7751539383634755584L
sbag1
(g2
g3
Ntp2027
Rp2028
(dp2029
g7
L3747276364948963328L
sbag1
(g2
g3
Ntp2030
Rp2031
(dp2032
g7
L3747839314902384640L
sbag1
(g2
g3
Ntp2033
Rp2034
(dp2035
g7
L3260606130216239104L
sbag1
(g2
g3
Ntp2036
Rp2037
(dp2038
g7
L9809684413343072256L
sbag1
(g2
g3
Ntp2039
Rp2040
(dp2041
g7
L5994291104030130176L
sbag1
(g2
g3
Ntp2042
Rp2043
(dp2044
g7
L9926598783259377664L
sbag1
(g2
g3
Ntp2045
Rp2046
(dp2047
g7
L7698441768106196992L
sbag1
(g2
g3
Ntp2048
Rp2049
(dp2050
g7
L9803822710696968192L
sbag1
(g2
g3
Ntp2051
Rp2052
(dp2053
g7
L5221765438261690368L
sbag1
(g2
g3
Ntp2054
Rp2055
(dp2056
g7
L5217148588936658944L
sbag1
(g2
g3
Ntp2057
Rp2058
(dp2059
g7
L5532981104992059392L
sbag1
(g2
g3
Ntp2060
Rp2061
(dp2062
g7
L5532985503038570496L
sbag1
(g2
g3
Ntp2063
Rp2064
(dp2065
g7
L9935802795095490560L
sbag1
(g2
g3
Ntp2066
Rp2067
(dp2068
g7
L9935837979467579392L
sbag1
(g2
g3
Ntp2069
Rp2070
(dp2071
g7
L951103946305306624L
sbag1
(g2
g3
Ntp2072
Rp2073
(dp2074
g7
L1400619484112224256L
sbag1
(g2
g3
Ntp2075
Rp2076
(dp2077
g7
L5221367140174528512L
sbag1
(g2
g3
Ntp2078
Rp2079
(dp2080
g7
L6094865631646056448L
sbag1
(g2
g3
Ntp2081
Rp2082
(dp2083
g7
L5221372912610574336L
sbag1
(g2
g3
Ntp2084
Rp2085
(dp2086
g7
L944348546864250880L
sbag1
(g2
g3
Ntp2087
Rp2088
(dp2089
g7
L7715421251296034816L
sbag1
(g2
g3
Ntp2090
Rp2091
(dp2092
g7
L9923594917492293632L
sbag1
(g2
g3
Ntp2093
Rp2094
(dp2095
g7
L9868917303754620928L
sbag1
(g2
g3
Ntp2096
Rp2097
(dp2098
g7
L6093490142599708672L
sbag1
(g2
g3
Ntp2099
Rp2100
(dp2101
g7
L1381039381044789248L
sbag1
(g2
g3
Ntp2102
Rp2103
(dp2104
g7
L3801038085500698624L
sbag1
(g2
g3
Ntp2105
Rp2106
(dp2107
g7
L9804284711739064320L
sbag1
(g2
g3
Ntp2108
Rp2109
(dp2110
g7
L4652218415073722368L
sbag1
(g2
g3
Ntp2111
Rp2112
(dp2113
g7
L4670232813583204352L
sbag1
(g2
g3
Ntp2114
Rp2115
(dp2116
g7
L11240984669916758016L
sbag1
(g2
g3
Ntp2117
Rp2118
(dp2119
g7
L5222957308866199552L
sbag1
(g2
g3
Ntp2120
Rp2121
(dp2122
g7
L5222974901052243968L
sbag1
(g2
g3
Ntp2123
Rp2124
(dp2125
g7
L5160773329245700096L
sbag1
(g2
g3
Ntp2126
Rp2127
(dp2128
g7
L9923470672678354944L
sbag1
(g2
g3
Ntp2129
Rp2130
(dp2131
g7
L9920022604213649408L
sbag1
(g2
g3
Ntp2132
Rp2133
(dp2134
g7
L5163466789136367616L
sbag1
(g2
g3
Ntp2135
Rp2136
(dp2137
g7
L8358680908399640576L
sbag1
(g2
g3
Ntp2138
Rp2139
(dp2140
g7
L9666695125174059008L
sbag1
(g2
g3
Ntp2141
Rp2142
(dp2143
g7
L5180953559503470592L
sbag1
(g2
g3
Ntp2144
Rp2145
(dp2146
g7
L6090679516001206272L
sbag1
(g2
g3
Ntp2147
Rp2148
(dp2149
g7
L5151750479130132480L
sbag1
(g2
g3
Ntp2150
Rp2151
(dp2152
g7
L5531546242317811712L
sbag1
(g2
g3
Ntp2153
Rp2154
(dp2155
g7
L5151750582209347584L
sbag1
(g2
g3
Ntp2156
Rp2157
(dp2158
g7
L5171381417430482944L
sbag1
(g2
g3
Ntp2159
Rp2160
(dp2161
g7
L9260860985315426304L
sbag1
(g2
g3
Ntp2162
Rp2163
(dp2164
g7
L5222398756959289344L
sbag1
(g2
g3
Ntp2165
Rp2166
(dp2167
g7
L5222469125703467008L
sbag1
(g2
g3
Ntp2168
Rp2169
(dp2170
g7
L9857253684407173120L
sbag1
(g2
g3
Ntp2171
Rp2172
(dp2173
g7
L10722607818373857280L
sbag1
(g2
g3
Ntp2174
Rp2175
(dp2176
g7
L10722612216420368384L
sbag1
(g2
g3
Ntp2177
Rp2178
(dp2179
g7
L5226075523842572288L
sbag1
(g2
g3
Ntp2180
Rp2181
(dp2182
g7
L10722718869048262656L
sbag1
(g2
g3
Ntp2183
Rp2184
(dp2185
g7
L5153595717339578368L
sbag1
(g2
g3
Ntp2186
Rp2187
(dp2188
g7
L1343550432584138752L
sbag1
(g2
g3
Ntp2189
Rp2190
(dp2191
g7
L5166473197524090880L
sbag1
(g2
g3
Ntp2192
Rp2193
(dp2194
g7
L1508705875169116160L
sbag1
(g2
g3
Ntp2195
Rp2196
(dp2197
g7
L5167036147477512192L
sbag1
(g2
g3
Ntp2198
Rp2199
(dp2200
g7
L5167599097430933504L
sbag1
(g2
g3
Ntp2201
Rp2202
(dp2203
g7
L5152188342456025088L
sbag1
(g2
g3
Ntp2204
Rp2205
(dp2206
g7
L5522539043063070720L
sbag1
(g2
g3
Ntp2207
Rp2208
(dp2209
g7
L5152610554921091072L
sbag1
(g2
g3
Ntp2210
Rp2211
(dp2212
g7
L5219038649424805888L
sbag1
(g2
g3
Ntp2213
Rp2214
(dp2215
g7
L5179983996406202368L
sbag1
(g2
g3
Ntp2216
Rp2217
(dp2218
g7
L958914876909027328L
sbag1
(g2
g3
Ntp2219
Rp2220
(dp2221
g7
L959196351885737984L
sbag1
(g2
g3
Ntp2222
Rp2223
(dp2224
g7
L5180957064196784128L
sbag1
(g2
g3
Ntp2225
Rp2226
(dp2227
g7
L5180546946359623680L
sbag1
(g2
g3
Ntp2228
Rp2229
(dp2230
g7
L9926594041615482880L
sbag1
(g2
g3
Ntp2231
Rp2232
(dp2233
g7
L9926594179054436352L
sbag1
(g2
g3
Ntp2234
Rp2235
(dp2236
g7
L3765290763458445312L
sbag1
(g2
g3
Ntp2237
Rp2238
(dp2239
g7
L5169639791012085760L
sbag1
(g2
g3
Ntp2240
Rp2241
(dp2242
g7
L5169780528500441088L
sbag1
(g2
g3
Ntp2243
Rp2244
(dp2245
g7
L5169076841058664448L
sbag1
(g2
g3
Ntp2246
Rp2247
(dp2248
g7
L1315051091192184832L
sbag1
(g2
g3
Ntp2249
Rp2250
(dp2251
g7
L9803830613436792832L
sbag1
(g2
g3
Ntp2252
Rp2253
(dp2254
g7
L9803839409529815040L
sbag1
(g2
g3
Ntp2255
Rp2256
(dp2257
g7
L9755922692791336960L
sbag1
(g2
g3
Ntp2258
Rp2259
(dp2260
g7
L9760426292418707456L
sbag1
(g2
g3
Ntp2261
Rp2262
(dp2263
g7
L9814962069156397056L
sbag1
(g2
g3
Ntp2264
Rp2265
(dp2266
g7
L7697496188106309632L
sbag1
(g2
g3
Ntp2267
Rp2268
(dp2269
g7
L7698059138059730944L
sbag1
(g2
g3
Ntp2270
Rp2271
(dp2272
g7
L3748965214809227264L
sbag1
(g2
g3
Ntp2273
Rp2274
(dp2275
g7
L1354176112954966016L
sbag1
(g2
g3
Ntp2276
Rp2277
(dp2278
g7
L9651214001454972928L
sbag1
(g2
g3
Ntp2279
Rp2280
(dp2281
g7
L6924429562617004032L
sbag1
(g2
g3
Ntp2282
Rp2283
(dp2284
g7
L955449216258277376L
sbag1
(g2
g3
Ntp2285
Rp2286
(dp2287
g7
L6924447154803048448L
sbag1
(g2
g3
Ntp2288
Rp2289
(dp2290
g7
L9664931508523106304L
sbag1
(g2
g3
Ntp2291
Rp2292
(dp2293
g7
L10804135506061819904L
sbag1
(g2
g3
Ntp2294
Rp2295
(dp2296
g7
L10795128306807078912L
sbag1
(g2
g3
Ntp2297
Rp2298
(dp2299
g7
L1386827210253402112L
sbag1
(g2
g3
Ntp2300
Rp2301
(dp2302
g7
L1152921504614187008L
sbag1
(g2
g3
Ntp2303
Rp2304
(dp2305
g7
L5139733074736578560L
sbag1
(g2
g3
Ntp2306
Rp2307
(dp2308
g7
L5066831055768518656L
sbag1
(g2
g3
Ntp2309
Rp2310
(dp2311
g7
L9930155703375233024L
sbag1
(g2
g3
Ntp2312
Rp2313
(dp2314
g7
L5067956955675361280L
sbag1
(g2
g3
Ntp2315
Rp2316
(dp2317
g7
L5222926522540621824L
sbag1
(g2
g3
Ntp2318
Rp2319
(dp2320
g7
L5171275864314216448L
sbag1
(g2
g3
Ntp2321
Rp2322
(dp2323
g7
L5222996891284799488L
sbag1
(g2
g3
Ntp2324
Rp2325
(dp2326
g7
L5147895849061187584L
sbag1
(g2
g3
Ntp2327
Rp2328
(dp2329
g7
L5149021748968030208L
sbag1
(g2
g3
Ntp2330
Rp2331
(dp2332
g7
L5163500118082584576L
sbag1
(g2
g3
Ntp2333
Rp2334
(dp2335
g7
L5221366384260284416L
sbag1
(g2
g3
Ntp2336
Rp2337
(dp2338
g7
L5221366659138191360L
sbag1
(g2
g3
Ntp2339
Rp2340
(dp2341
g7
L6112510594248605696L
sbag1
(g2
g3
Ntp2342
Rp2343
(dp2344
g7
L5048535182282326016L
sbag1
(g2
g3
Ntp2345
Rp2346
(dp2347
g7
L5192368895381471232L
sbag1
(g2
g3
Ntp2348
Rp2349
(dp2350
g7
L9918052279376674816L
sbag1
(g2
g3
Ntp2351
Rp2352
(dp2353
g7
L5245567665979785216L
sbag1
(g2
g3
Ntp2354
Rp2355
(dp2356
g7
L5154721617246420992L
sbag1
(g2
g3
Ntp2357
Rp2358
(dp2359
g7
L9675057185981202432L
sbag1
(g2
g3
Ntp2360
Rp2361
(dp2362
g7
L5154862354734776320L
sbag1
(g2
g3
Ntp2363
Rp2364
(dp2365
g7
L5171833316709498880L
sbag1
(g2
g3
Ntp2366
Rp2367
(dp2368
g7
L4318952042648305664L
sbag1
(g2
g3
Ntp2369
Rp2370
(dp2371
g7
L9263761565708976128L
sbag1
(g2
g3
Ntp2372
Rp2373
(dp2374
g7
L5181039527568867328L
sbag1
(g2
g3
Ntp2375
Rp2376
(dp2377
g7
L9263761840586883072L
sbag1
(g2
g3
Ntp2378
Rp2379
(dp2380
g7
L9811996686296285184L
sbag1
(g2
g3
Ntp2381
Rp2382
(dp2383
g7
L959337089374093312L
sbag1
(g2
g3
Ntp2384
Rp2385
(dp2386
g7
L5191805945428049920L
sbag1
(g2
g3
Ntp2387
Rp2388
(dp2389
g7
L959618564350803968L
sbag1
(g2
g3
Ntp2390
Rp2391
(dp2392
g7
L9812499163110178816L
sbag1
(g2
g3
Ntp2393
Rp2394
(dp2395
g7
L4299811744231981056L
sbag1
(g2
g3
Ntp2396
Rp2397
(dp2398
g7
L10682538316122816512L
sbag1
(g2
g3
Ntp2399
Rp2400
(dp2401
g7
L1374442311278133248L
sbag1
(g2
g3
Ntp2402
Rp2403
(dp2404
g7
L5221390848394002432L
sbag1
(g2
g3
Ntp2405
Rp2406
(dp2407
g7
L5221390985832955904L
sbag1
(g2
g3
Ntp2408
Rp2409
(dp2410
g7
L9804248427855347712L
sbag1
(g2
g3
Ntp2411
Rp2412
(dp2413
g7
L5180949556593950720L
sbag1
(g2
g3
Ntp2414
Rp2415
(dp2416
g7
L1357553812675493888L
sbag1
(g2
g3
Ntp2417
Rp2418
(dp2419
g7
L9624192403690749952L
sbag1
(g2
g3
Ntp2420
Rp2421
(dp2422
g7
L5221554332029157376L
sbag1
(g2
g3
Ntp2423
Rp2424
(dp2425
g7
L5221389680162897920L
sbag1
(g2
g3
Ntp2426
Rp2427
(dp2428
g7
L5175761871755542528L
sbag1
(g2
g3
Ntp2429
Rp2430
(dp2431
g7
L4129800858298744832L
sbag1
(g2
g3
Ntp2432
Rp2433
(dp2434
g7
L10789217332296155136L
sbag1
(g2
g3
Ntp2435
Rp2436
(dp2437
g7
L5552938340547821568L
sbag1
(g2
g3
Ntp2438
Rp2439
(dp2440
g7
L5561945539802562560L
sbag1
(g2
g3
Ntp2441
Rp2442
(dp2443
g7
L9926595828321878016L
sbag1
(g2
g3
Ntp2444
Rp2445
(dp2446
g7
L9824884062085447680L
sbag1
(g2
g3
Ntp2447
Rp2448
(dp2449
g7
L9826009961992290304L
sbag1
(g2
g3
Ntp2450
Rp2451
(dp2452
g7
L1567252670324932608L
sbag1
(g2
g3
Ntp2453
Rp2454
(dp2455
g7
L9278197809784291328L
sbag1
(g2
g3
Ntp2456
Rp2457
(dp2458
g7
L5219742336866582528L
sbag1
(g2
g3
Ntp2459
Rp2460
(dp2461
g7
L1381007495207583744L
sbag1
(g2
g3
Ntp2462
Rp2463
(dp2464
g7
L1381011893254094848L
sbag1
(g2
g3
Ntp2465
Rp2466
(dp2467
g7
L10839038403173941248L
sbag1
(g2
g3
Ntp2468
Rp2469
(dp2470
g7
L10843542002801311744L
sbag1
(g2
g3
Ntp2471
Rp2472
(dp2473
g7
L3823556083637551104L
sbag1
(g2
g3
Ntp2474
Rp2475
(dp2476
g7
L3841570482147033088L
sbag1
(g2
g3
Ntp2477
Rp2478
(dp2479
g7
L10726448412489678848L
sbag1
(g2
g3
Ntp2480
Rp2481
(dp2482
g7
L1340946789049565184L
sbag1
(g2
g3
Ntp2483
Rp2484
(dp2485
g7
L7715420632820744192L
sbag1
(g2
g3
Ntp2486
Rp2487
(dp2488
g7
L9936699996583755776L
sbag1
(g2
g3
Ntp2489
Rp2490
(dp2491
g7
L7715420907698651136L
sbag1
(g2
g3
Ntp2492
Rp2493
(dp2494
g7
L9811725106924224512L
sbag1
(g2
g3
Ntp2495
Rp2496
(dp2497
g7
L5184487596033572864L
sbag1
(g2
g3
Ntp2498
Rp2499
(dp2500
g7
L9926594453932343296L
sbag1
(g2
g3
Ntp2501
Rp2502
(dp2503
g7
L9926594728810250240L
sbag1
(g2
g3
Ntp2504
Rp2505
(dp2506
g7
L8935159252889108480L
sbag1
(g2
g3
Ntp2507
Rp2508
(dp2509
g7
L878201927337246720L
sbag1
(g2
g3
Ntp2510
Rp2511
(dp2512
g7
L9645584501920759808L
sbag1
(g2
g3
Ntp2513
Rp2514
(dp2515
g7
L6925128852012269568L
sbag1
(g2
g3
Ntp2516
Rp2517
(dp2518
g7
L9861141557522989056L
sbag1
(g2
g3
Ntp2519
Rp2520
(dp2521
g7
L6917740133873614848L
sbag1
(g2
g3
Ntp2522
Rp2523
(dp2524
g7
L9927780758259236864L
sbag1
(g2
g3
Ntp2525
Rp2526
(dp2527
g7
L9927815942631325696L
sbag1
(g2
g3
Ntp2528
Rp2529
(dp2530
g7
L5219935850913071104L
sbag1
(g2
g3
Ntp2531
Rp2532
(dp2533
g7
L5171825620128104448L
sbag1
(g2
g3
Ntp2534
Rp2535
(dp2536
g7
L9260245258803871744L
sbag1
(g2
g3
Ntp2537
Rp2538
(dp2539
g7
L9263750501873221632L
sbag1
(g2
g3
Ntp2540
Rp2541
(dp2542
g7
L9923664186724843520L
sbag1
(g2
g3
Ntp2543
Rp2544
(dp2545
g7
L5435844750236188672L
sbag1
(g2
g3
Ntp2546
Rp2547
(dp2548
g7
L5145644049247502336L
sbag1
(g2
g3
Ntp2549
Rp2550
(dp2551
g7
L9804286635884412928L
sbag1
(g2
g3
Ntp2552
Rp2553
(dp2554
g7
L5146206999200923648L
sbag1
(g2
g3
Ntp2555
Rp2556
(dp2557
g7
L5147332899107766272L
sbag1
(g2
g3
Ntp2558
Rp2559
(dp2560
g7
L940970847143723008L
sbag1
(g2
g3
Ntp2561
Rp2562
(dp2563
g7
L963787912443330560L
sbag1
(g2
g3
Ntp2564
Rp2565
(dp2566
g7
L5226501034842521600L
sbag1
(g2
g3
Ntp2567
Rp2568
(dp2569
g7
L5171837714756009984L
sbag1
(g2
g3
Ntp2570
Rp2571
(dp2572
g7
L6093383489971814400L
sbag1
(g2
g3
Ntp2573
Rp2574
(dp2575
g7
L1494069176380162048L
sbag1
(g2
g3
Ntp2576
Rp2577
(dp2578
g7
L5221365490907086848L
sbag1
(g2
g3
Ntp2579
Rp2580
(dp2581
g7
L9677743018009952256L
sbag1
(g2
g3
Ntp2582
Rp2583
(dp2584
g7
L1385138360393138176L
sbag1
(g2
g3
Ntp2585
Rp2586
(dp2587
g7
L9678165230475018240L
sbag1
(g2
g3
Ntp2588
Rp2589
(dp2590
g7
L9811995311906750464L
sbag1
(g2
g3
Ntp2591
Rp2592
(dp2593
g7
L886083226685145088L
sbag1
(g2
g3
Ntp2594
Rp2595
(dp2596
g7
L6090062964855930880L
sbag1
(g2
g3
Ntp2597
Rp2598
(dp2599
g7
L5226339406633238528L
sbag1
(g2
g3
Ntp2600
Rp2601
(dp2602
g7
L1498238524472688640L
sbag1
(g2
g3
Ntp2603
Rp2604
(dp2605
g7
L9675121782289334272L
sbag1
(g2
g3
Ntp2606
Rp2607
(dp2608
g7
L6070852297695428608L
sbag1
(g2
g3
Ntp2609
Rp2610
(dp2611
g7
L9675702324428800000L
sbag1
(g2
g3
Ntp2612
Rp2613
(dp2614
g7
L947374402863890432L
sbag1
(g2
g3
Ntp2615
Rp2616
(dp2617
g7
L9803822624797622272L
sbag1
(g2
g3
Ntp2618
Rp2619
(dp2620
g7
L5171469378360705024L
sbag1
(g2
g3
Ntp2621
Rp2622
(dp2623
g7
L9843742885525061632L
sbag1
(g2
g3
Ntp2624
Rp2625
(dp2626
g7
L9278202482708709376L
sbag1
(g2
g3
Ntp2627
Rp2628
(dp2629
g7
L6090686387948879872L
sbag1
(g2
g3
Ntp2630
Rp2631
(dp2632
g7
L9822632262271762432L
sbag1
(g2
g3
Ntp2633
Rp2634
(dp2635
g7
L9260954443803787264L
sbag1
(g2
g3
Ntp2636
Rp2637
(dp2638
g7
L4481081629233643520L
sbag1
(g2
g3
Ntp2639
Rp2640
(dp2641
g7
L9278185990034292736L
sbag1
(g2
g3
Ntp2642
Rp2643
(dp2644
g7
L3592211415449993216L
sbag1
(g2
g3
Ntp2645
Rp2646
(dp2647
g7
L1384575410439716864L
sbag1
(g2
g3
Ntp2648
Rp2649
(dp2650
g7
L10502394331027996672L
sbag1
(g2
g3
Ntp2651
Rp2652
(dp2653
g7
L955373349955960832L
sbag1
(g2
g3
Ntp2654
Rp2655
(dp2656
g7
L7713540261778817024L
sbag1
(g2
g3
Ntp2657
Rp2658
(dp2659
g7
L9854790778360954880L
sbag1
(g2
g3
Ntp2660
Rp2661
(dp2662
g7
L5214323943564902400L
sbag1
(g2
g3
Ntp2663
Rp2664
(dp2665
g7
L9673995882382491648L
sbag1
(g2
g3
Ntp2666
Rp2667
(dp2668
g7
L9260597102524760064L
sbag1
(g2
g3
Ntp2669
Rp2670
(dp2671
g7
L5118622451483279360L
sbag1
(g2
g3
Ntp2672
Rp2673
(dp2674
g7
L5120311301343543296L
sbag1
(g2
g3
Ntp2675
Rp2676
(dp2677
g7
L9864923877522538496L
sbag1
(g2
g3
Ntp2678
Rp2679
(dp2680
g7
L5221272857052446720L
sbag1
(g2
g3
Ntp2681
Rp2682
(dp2683
g7
L5232056867097673728L
sbag1
(g2
g3
Ntp2684
Rp2685
(dp2686
g7
L5221343225796624384L
sbag1
(g2
g3
Ntp2687
Rp2688
(dp2689
g7
L5163472630291890176L
sbag1
(g2
g3
Ntp2690
Rp2691
(dp2692
g7
L4701758010974797824L
sbag1
(g2
g3
Ntp2693
Rp2694
(dp2695
g7
L9829950611666239488L
sbag1
(g2
g3
Ntp2696
Rp2697
(dp2698
g7
L960674095513468928L
sbag1
(g2
g3
Ntp2699
Rp2700
(dp2701
g7
L3116490942140383232L
sbag1
(g2
g3
Ntp2702
Rp2703
(dp2704
g7
L5222433941331378176L
sbag1
(g2
g3
Ntp2705
Rp2706
(dp2707
g7
L1355302012861808640L
sbag1
(g2
g3
Ntp2708
Rp2709
(dp2710
g7
L5085619510463954944L
sbag1
(g2
g3
Ntp2711
Rp2712
(dp2713
g7
L5134600554458120192L
sbag1
(g2
g3
Ntp2714
Rp2715
(dp2716
g7
L5154158667292999680L
sbag1
(g2
g3
Ntp2717
Rp2718
(dp2719
g7
L6269010681299730432L
sbag1
(g2
g3
Ntp2720
Rp2721
(dp2722
g7
L5154031123944177664L
sbag1
(g2
g3
Ntp2723
Rp2724
(dp2725
g7
L1381549554440077312L
sbag1
(g2
g3
Ntp2726
Rp2727
(dp2728
g7
L4233383649728266240L
sbag1
(g2
g3
Ntp2729
Rp2730
(dp2731
g7
L1381971766905143296L
sbag1
(g2
g3
Ntp2732
Rp2733
(dp2734
g7
L7750765327448801280L
sbag1
(g2
g3
Ntp2735
Rp2736
(dp2737
g7
L7750906064937156608L
sbag1
(g2
g3
Ntp2738
Rp2739
(dp2740
g7
L5069645805535625216L
sbag1
(g2
g3
Ntp2741
Rp2742
(dp2743
g7
L1350798413234438144L
sbag1
(g2
g3
Ntp2744
Rp2745
(dp2746
g7
L5172595278267547648L
sbag1
(g2
g3
Ntp2747
Rp2748
(dp2749
g7
L5172876753244258304L
sbag1
(g2
g3
Ntp2750
Rp2751
(dp2752
g7
L4521614025879977984L
sbag1
(g2
g3
Ntp2753
Rp2754
(dp2755
g7
L5221730253889601536L
sbag1
(g2
g3
Ntp2756
Rp2757
(dp2758
g7
L9278181591987781632L
sbag1
(g2
g3
Ntp2759
Rp2760
(dp2761
g7
L9278183791011037184L
sbag1
(g2
g3
Ntp2762
Rp2763
(dp2764
g7
L10722605344472694784L
sbag1
(g2
g3
Ntp2765
Rp2766
(dp2767
g7
L10722606443984322560L
sbag1
(g2
g3
Ntp2768
Rp2769
(dp2770
g7
L9936559259095400448L
sbag1
(g2
g3
Ntp2771
Rp2772
(dp2773
g7
L9260950320635183104L
sbag1
(g2
g3
Ntp2774
Rp2775
(dp2776
g7
L940619003422834688L
sbag1
(g2
g3
Ntp2777
Rp2778
(dp2779
g7
L9681331823963013120L
sbag1
(g2
g3
Ntp2780
Rp2781
(dp2782
g7
L9811994762150936576L
sbag1
(g2
g3
Ntp2783
Rp2784
(dp2785
g7
L5158803004408725504L
sbag1
(g2
g3
Ntp2786
Rp2787
(dp2788
g7
L6924636270803025920L
sbag1
(g2
g3
Ntp2789
Rp2790
(dp2791
g7
L7868914448923099136L
sbag1
(g2
g3
Ntp2792
Rp2793
(dp2794
g7
L9272911632755851264L
sbag1
(g2
g3
Ntp2795
Rp2796
(dp2797
g7
L5151744139758403584L
sbag1
(g2
g3
Ntp2798
Rp2799
(dp2800
g7
L9817565712690970624L
sbag1
(g2
g3
Ntp2801
Rp2802
(dp2803
g7
L5223964461517242368L
sbag1
(g2
g3
Ntp2804
Rp2805
(dp2806
g7
L5122000151203807232L
sbag1
(g2
g3
Ntp2807
Rp2808
(dp2809
g7
L5155618818734686208L
sbag1
(g2
g3
Ntp2810
Rp2811
(dp2812
g7
L5151625392502603776L
sbag1
(g2
g3
Ntp2813
Rp2814
(dp2815
g7
L5067323636977762304L
sbag1
(g2
g3
Ntp2816
Rp2817
(dp2818
g7
L5180949625313427456L
sbag1
(g2
g3
Ntp2819
Rp2820
(dp2821
g7
L7777716556468846592L
sbag1
(g2
g3
Ntp2822
Rp2823
(dp2824
g7
L9281074407080460288L
sbag1
(g2
g3
Ntp2825
Rp2826
(dp2827
g7
L5534572098317451264L
sbag1
(g2
g3
Ntp2828
Rp2829
(dp2830
g7
L7698393389594574848L
sbag1
(g2
g3
Ntp2831
Rp2832
(dp2833
g7
L955818652165210112L
sbag1
(g2
g3
Ntp2834
Rp2835
(dp2836
g7
L9660221200709713920L
sbag1
(g2
g3
Ntp2837
Rp2838
(dp2839
g7
L7698463758338752512L
sbag1
(g2
g3
Ntp2840
Rp2841
(dp2842
g7
L5227271792493592576L
sbag1
(g2
g3
Ntp2843
Rp2844
(dp2845
g7
L9673960698010402816L
sbag1
(g2
g3
Ntp2846
Rp2847
(dp2848
g7
L9672606099684982784L
sbag1
(g2
g3
Ntp2849
Rp2850
(dp2851
g7
L3776620131271049216L
sbag1
(g2
g3
Ntp2852
Rp2853
(dp2854
g7
L1482810177311735808L
sbag1
(g2
g3
Ntp2855
Rp2856
(dp2857
g7
L943841672003846144L
sbag1
(g2
g3
Ntp2858
Rp2859
(dp2860
g7
L943843871027101696L
sbag1
(g2
g3
Ntp2861
Rp2862
(dp2863
g7
L965740645094260736L
sbag1
(g2
g3
Ntp2864
Rp2865
(dp2866
g7
L3562347305250062336L
sbag1
(g2
g3
Ntp2867
Rp2868
(dp2869
g7
L9677391174289063936L
sbag1
(g2
g3
Ntp2870
Rp2871
(dp2872
g7
L5533164723433897984L
sbag1
(g2
g3
Ntp2873
Rp2874
(dp2875
g7
L9676265274382221312L
sbag1
(g2
g3
Ntp2876
Rp2877
(dp2878
g7
L9676828224335642624L
sbag1
(g2
g3
Ntp2879
Rp2880
(dp2881
g7
L9804318796599525376L
sbag1
(g2
g3
Ntp2882
Rp2883
(dp2884
g7
L5154070706362777600L
sbag1
(g2
g3
Ntp2885
Rp2886
(dp2887
g7
L5532984128649035776L
sbag1
(g2
g3
Ntp2888
Rp2889
(dp2890
g7
L5527324117667151872L
sbag1
(g2
g3
Ntp2891
Rp2892
(dp2893
g7
L6094787566320484352L
sbag1
(g2
g3
Ntp2894
Rp2895
(dp2896
g7
L9812059358459068416L
sbag1
(g2
g3
Ntp2897
Rp2898
(dp2899
g7
L10272710750032101376L
sbag1
(g2
g3
Ntp2900
Rp2901
(dp2902
g7
L5154021228339527680L
sbag1
(g2
g3
Ntp2903
Rp2904
(dp2905
g7
L6093487462540115968L
sbag1
(g2
g3
Ntp2906
Rp2907
(dp2908
g7
L6093487737418022912L
sbag1
(g2
g3
Ntp2909
Rp2910
(dp2911
g7
L9869005264684843008L
sbag1
(g2
g3
Ntp2912
Rp2913
(dp2914
g7
L3580361703759544320L
sbag1
(g2
g3
Ntp2915
Rp2916
(dp2917
g7
L1384012460486295552L
sbag1
(g2
g3
Ntp2918
Rp2919
(dp2920
g7
L41658296553177088L
sbag1
(g2
g3
Ntp2921
Rp2922
(dp2923
g7
L1343377792078708736L
sbag1
(g2
g3
Ntp2924
Rp2925
(dp2926
g7
L6091048127274418176L
sbag1
(g2
g3
Ntp2927
Rp2928
(dp2929
g7
L3588735584316686336L
sbag1
(g2
g3
Ntp2930
Rp2931
(dp2932
g7
L9929029803468390400L
sbag1
(g2
g3
Ntp2933
Rp2934
(dp2935
g7
L9929592753421811712L
sbag1
(g2
g3
Ntp2936
Rp2937
(dp2938
g7
L5185613495940415488L
sbag1
(g2
g3
Ntp2939
Rp2940
(dp2941
g7
L7716636486522634240L
sbag1
(g2
g3
Ntp2942
Rp2943
(dp2944
g7
L5221233274633846784L
sbag1
(g2
g3
Ntp2945
Rp2946
(dp2947
g7
L5193494795288313856L
sbag1
(g2
g3
Ntp2948
Rp2949
(dp2950
g7
L5217191469890142208L
sbag1
(g2
g3
Ntp2951
Rp2952
(dp2953
g7
L5217226654262231040L
sbag1
(g2
g3
Ntp2954
Rp2955
(dp2956
g7
L1343405297049272320L
sbag1
(g2
g3
Ntp2957
Rp2958
(dp2959
g7
L5150499492595761152L
sbag1
(g2
g3
Ntp2960
Rp2961
(dp2962
g7
L9863164658918096896L
sbag1
(g2
g3
Ntp2963
Rp2964
(dp2965
g7
L5150921705060827136L
sbag1
(g2
g3
Ntp2966
Rp2967
(dp2968
g7
L5180938372499111936L
sbag1
(g2
g3
Ntp2969
Rp2970
(dp2971
g7
L6090681715024461824L
sbag1
(g2
g3
Ntp2972
Rp2973
(dp2974
g7
L9265311808384663552L
sbag1
(g2
g3
Ntp2975
Rp2976
(dp2977
g7
L1343377465661194240L
sbag1
(g2
g3
Ntp2978
Rp2979
(dp2980
g7
L9803984545064681472L
sbag1
(g2
g3
Ntp2981
Rp2982
(dp2983
g7
L1343377603100147712L
sbag1
(g2
g3
Ntp2984
Rp2985
(dp2986
g7
L9733404694654484480L
sbag1
(g2
g3
Ntp2987
Rp2988
(dp2989
g7
L9789981164973326336L
sbag1
(g2
g3
Ntp2990
Rp2991
(dp2992
g7
L9664913916337061888L
sbag1
(g2
g3
Ntp2993
Rp2994
(dp2995
g7
L5221393528453595136L
sbag1
(g2
g3
Ntp2996
Rp2997
(dp2998
g7
L9868797456987193344L
sbag1
(g2
g3
Ntp2999
Rp3000
(dp3001
g7
L9868799656010448896L
sbag1
(g2
g3
Ntp3002
Rp3003
(dp3004
g7
L9920655922911248384L
sbag1
(g2
g3
Ntp3005
Rp3006
(dp3007
g7
L5516909543528857600L
sbag1
(g2
g3
Ntp3008
Rp3009
(dp3010
g7
L1387390160206823424L
sbag1
(g2
g3
Ntp3011
Rp3012
(dp3013
g7
L955371425810612224L
sbag1
(g2
g3
Ntp3014
Rp3015
(dp3016
g7
L9935714834165268480L
sbag1
(g2
g3
Ntp3017
Rp3018
(dp3019
g7
L5110459677158670336L
sbag1
(g2
g3
Ntp3020
Rp3021
(dp3022
g7
L5112711476972355584L
sbag1
(g2
g3
Ntp3023
Rp3024
(dp3025
g7
L5114963276786040832L
sbag1
(g2
g3
Ntp3026
Rp3027
(dp3028
g7
L5221994136680267776L
sbag1
(g2
g3
Ntp3029
Rp3030
(dp3031
g7
L5222134874168623104L
sbag1
(g2
g3
Ntp3032
Rp3033
(dp3034
g7
L9759018917535154176L
sbag1
(g2
g3
Ntp3035
Rp3036
(dp3037
g7
L3765752558342111232L
sbag1
(g2
g3
Ntp3038
Rp3039
(dp3040
g7
L5160351116780634112L
sbag1
(g2
g3
Ntp3041
Rp3042
(dp3043
g7
L5160491854268989440L
sbag1
(g2
g3
Ntp3044
Rp3045
(dp3046
g7
L1489565576752791552L
sbag1
(g2
g3
Ntp3047
Rp3048
(dp3049
g7
L3981182070595518464L
sbag1
(g2
g3
Ntp3050
Rp3051
(dp3052
g7
L1491817376566476800L
sbag1
(g2
g3
Ntp3053
Rp3054
(dp3055
g7
L4488962928581541888L
sbag1
(g2
g3
Ntp3056
Rp3057
(dp3058
g7
L9791951489810300928L
sbag1
(g2
g3
Ntp3059
Rp3060
(dp3061
g7
L1945555039024054272L
sbag1
(g2
g3
Ntp3062
Rp3063
(dp3064
g7
L9798706889251356672L
sbag1
(g2
g3
Ntp3065
Rp3066
(dp3067
g7
L5188428245707522048L
sbag1
(g2
g3
Ntp3068
Rp3069
(dp3070
g7
L1380933827928522752L
sbag1
(g2
g3
Ntp3071
Rp3072
(dp3073
g7
L5189554145614364672L
sbag1
(g2
g3
Ntp3074
Rp3075
(dp3076
g7
L792633534417207296L
sbag1
(g2
g3
Ntp3077
Rp3078
(dp3079
g7
L9803822848135921664L
sbag1
(g2
g3
Ntp3080
Rp3081
(dp3082
g7
L9804270418087903232L
sbag1
(g2
g3
Ntp3083
Rp3084
(dp3085
g7
L6093488768210173952L
sbag1
(g2
g3
Ntp3086
Rp3087
(dp3088
g7
L9940570277513527296L
sbag1
(g2
g3
Ntp3089
Rp3090
(dp3091
g7
L18014398509481984L
sbag1
(g2
g3
Ntp3092
Rp3093
(dp3094
g7
L9741004519025672192L
sbag1
(g2
g3
Ntp3095
Rp3096
(dp3097
g7
L9267563608198348800L
sbag1
(g2
g3
Ntp3098
Rp3099
(dp3100
g7
L3620894100405878784L
sbag1
(g2
g3
Ntp3101
Rp3102
(dp3103
g7
L3656922897424842752L
sbag1
(g2
g3
Ntp3104
Rp3105
(dp3106
g7
L3692951694443806720L
sbag1
(g2
g3
Ntp3107
Rp3108
(dp3109
g7
L9923597116515549184L
sbag1
(g2
g3
Ntp3110
Rp3111
(dp3112
g7
L5180952391272366080L
sbag1
(g2
g3
Ntp3113
Rp3114
(dp3115
g7
L5180952941028179968L
sbag1
(g2
g3
Ntp3116
Rp3117
(dp3118
g7
L9860701752871878656L
sbag1
(g2
g3
Ntp3119
Rp3120
(dp3121
g7
L5538301641758867456L
sbag1
(g2
g3
Ntp3122
Rp3123
(dp3124
g7
L9926549305236127744L
sbag1
(g2
g3
Ntp3125
Rp3126
(dp3127
g7
L9860983227848589312L
sbag1
(g2
g3
Ntp3128
Rp3129
(dp3130
g7
L6093401082157858816L
sbag1
(g2
g3
Ntp3131
Rp3132
(dp3133
g7
L5220586761796714496L
sbag1
(g2
g3
Ntp3134
Rp3135
(dp3136
g7
L9828824711759396864L
sbag1
(g2
g3
Ntp3137
Rp3138
(dp3139
g7
L5221366796577144832L
sbag1
(g2
g3
Ntp3140
Rp3141
(dp3142
g7
L44191571343572992L
sbag1
(g2
g3
Ntp3143
Rp3144
(dp3145
g7
L4053239664633446400L
sbag1
(g2
g3
Ntp3146
Rp3147
(dp3148
g7
L9262497058617556992L
sbag1
(g2
g3
Ntp3149
Rp3150
(dp3151
g7
L7759702157959364608L
sbag1
(g2
g3
Ntp3152
Rp3153
(dp3154
g7
L9151314442816847872L
sbag1
(g2
g3
Ntp3155
Rp3156
(dp3157
g7
L9803818518808887296L
sbag1
(g2
g3
Ntp3158
Rp3159
(dp3160
g7
L1080863910568919040L
sbag1
(g2
g3
Ntp3161
Rp3162
(dp3163
g7
L3765764652970016768L
sbag1
(g2
g3
Ntp3164
Rp3165
(dp3166
g7
L5533006393759498240L
sbag1
(g2
g3
Ntp3167
Rp3168
(dp3169
g7
L5533041578131587072L
sbag1
(g2
g3
Ntp3170
Rp3171
(dp3172
g7
L10722630908118040576L
sbag1
(g2
g3
Ntp3173
Rp3174
(dp3175
g7
L5062538562373681152L
sbag1
(g2
g3
Ntp3176
Rp3177
(dp3178
g7
L5151818906549092352L
sbag1
(g2
g3
Ntp3179
Rp3180
(dp3181
g7
L9674928268242845696L
sbag1
(g2
g3
Ntp3182
Rp3183
(dp3184
g7
L3760505688854364160L
sbag1
(g2
g3
Ntp3185
Rp3186
(dp3187
g7
L9675209743219556352L
sbag1
(g2
g3
Ntp3188
Rp3189
(dp3190
g7
L6090907389786062848L
sbag1
(g2
g3
Ntp3191
Rp3192
(dp3193
g7
L5163465758344216576L
sbag1
(g2
g3
Ntp3194
Rp3195
(dp3196
g7
L955392041653633024L
sbag1
(g2
g3
Ntp3197
Rp3198
(dp3199
g7
L7715422350807662592L
sbag1
(g2
g3
Ntp3200
Rp3201
(dp3202
g7
L6949054225032675328L
sbag1
(g2
g3
Ntp3203
Rp3204
(dp3205
g7
L9263762321623220224L
sbag1
(g2
g3
Ntp3206
Rp3207
(dp3208
g7
L9868583052219777024L
sbag1
(g2
g3
Ntp3209
Rp3210
(dp3211
g7
L5226365726192828416L
sbag1
(g2
g3
Ntp3212
Rp3213
(dp3214
g7
L5163588079012806656L
sbag1
(g2
g3
Ntp3215
Rp3216
(dp3217
g7
L5171830293052522496L
sbag1
(g2
g3
Ntp3218
Rp3219
(dp3220
g7
L918734323983581184L
sbag1
(g2
g3
Ntp3221
Rp3222
(dp3223
g7
L5171830842808336384L
sbag1
(g2
g3
Ntp3224
Rp3225
(dp3226
g7
L5171831392564150272L
sbag1
(g2
g3
Ntp3227
Rp3228
(dp3229
g7
L9638829102479704064L
sbag1
(g2
g3
Ntp3230
Rp3231
(dp3232
g7
L9278242065127309312L
sbag1
(g2
g3
Ntp3233
Rp3234
(dp3235
g7
L9280159613406150656L
sbag1
(g2
g3
Ntp3236
Rp3237
(dp3238
g7
L1343380008281833472L
sbag1
(g2
g3
Ntp3239
Rp3240
(dp3241
g7
L1535727472933339136L
sbag1
(g2
g3
Ntp3242
Rp3243
(dp3244
g7
L5221361917494296576L
sbag1
(g2
g3
Ntp3245
Rp3246
(dp3247
g7
L5177380352871628800L
sbag1
(g2
g3
Ntp3248
Rp3249
(dp3250
g7
L9283044731917434880L
sbag1
(g2
g3
Ntp3251
Rp3252
(dp3253
g7
L5171135126825861120L
sbag1
(g2
g3
Ntp3254
Rp3255
(dp3256
g7
L5171170311197949952L
sbag1
(g2
g3
Ntp3257
Rp3258
(dp3259
g7
L950189152630996992L
sbag1
(g2
g3
Ntp3260
Rp3261
(dp3262
g7
L5226444959749505024L
sbag1
(g2
g3
Ntp3263
Rp3264
(dp3265
g7
L5226480144121593856L
sbag1
(g2
g3
Ntp3266
Rp3267
(dp3268
g7
L9439544818968559616L
sbag1
(g2
g3
Ntp3269
Rp3270
(dp3271
g7
L5171835515732754432L
sbag1
(g2
g3
Ntp3272
Rp3273
(dp3274
g7
L10142106360838356992L
sbag1
(g2
g3
Ntp3275
Rp3276
(dp3277
g7
L1382451153974853632L
sbag1
(g2
g3
Ntp3278
Rp3279
(dp3280
g7
L9278190388080803840L
sbag1
(g2
g3
Ntp3281
Rp3282
(dp3283
g7
L9278192587104059392L
sbag1
(g2
g3
Ntp3284
Rp3285
(dp3286
g7
L9278194786127314944L
sbag1
(g2
g3
Ntp3287
Rp3288
(dp3289
g7
L9804291308808830976L
sbag1
(g2
g3
Ntp3290
Rp3291
(dp3292
g7
L7693274063455649792L
sbag1
(g2
g3
Ntp3293
Rp3294
(dp3295
g7
L2954361355555045376L
sbag1
(g2
g3
Ntp3296
Rp3297
(dp3298
g7
L3748613371088338944L
sbag1
(g2
g3
Ntp3299
Rp3300
(dp3301
g7
L3748331896111628288L
sbag1
(g2
g3
Ntp3302
Rp3303
(dp3304
g7
L3748472633599983616L
sbag1
(g2
g3
Ntp3305
Rp3306
(dp3307
g7
L5163869553989517312L
sbag1
(g2
g3
Ntp3308
Rp3309
(dp3310
g7
L3748173566437228544L
sbag1
(g2
g3
Ntp3311
Rp3312
(dp3313
g7
L3748208750809317376L
sbag1
(g2
g3
Ntp3314
Rp3315
(dp3316
g7
L9675016229173067776L
sbag1
(g2
g3
Ntp3317
Rp3318
(dp3319
g7
L5224457042726486016L
sbag1
(g2
g3
Ntp3320
Rp3321
(dp3322
g7
L9674576424521957376L
sbag1
(g2
g3
Ntp3323
Rp3324
(dp3325
g7
L9803791031018192896L
sbag1
(g2
g3
Ntp3326
Rp3327
(dp3328
g7
L6094566564483301376L
sbag1
(g2
g3
Ntp3329
Rp3330
(dp3331
g7
L5217160683564564480L
sbag1
(g2
g3
Ntp3332
Rp3333
(dp3334
g7
L5217261838634319872L
sbag1
(g2
g3
Ntp3335
Rp3336
(dp3337
g7
L6093393110698557440L
sbag1
(g2
g3
Ntp3338
Rp3339
(dp3340
g7
L1382432462277181440L
sbag1
(g2
g3
Ntp3341
Rp3342
(dp3343
g7
L6093506635274125312L
sbag1
(g2
g3
Ntp3344
Rp3345
(dp3346
g7
L1382434661300436992L
sbag1
(g2
g3
Ntp3347
Rp3348
(dp3349
g7
L3748142780111650816L
sbag1
(g2
g3
Ntp3350
Rp3351
(dp3352
g7
L9800114264134909952L
sbag1
(g2
g3
Ntp3353
Rp3354
(dp3355
g7
L7715299480383258624L
sbag1
(g2
g3
Ntp3356
Rp3357
(dp3358
g7
L6090665497227952128L
sbag1
(g2
g3
Ntp3359
Rp3360
(dp3361
g7
L5119449284227366912L
sbag1
(g2
g3
Ntp3362
Rp3363
(dp3364
g7
L5692549928996306944L
sbag1
(g2
g3
Ntp3365
Rp3366
(dp3367
g7
L9926690042724483072L
sbag1
(g2
g3
Ntp3368
Rp3369
(dp3370
g7
L5084845454278000640L
sbag1
(g2
g3
Ntp3371
Rp3372
(dp3373
g7
L5985283904775389184L
sbag1
(g2
g3
Ntp3374
Rp3375
(dp3376
g7
L5085971354184843264L
sbag1
(g2
g3
Ntp3377
Rp3378
(dp3379
g7
L9679361499126038528L
sbag1
(g2
g3
Ntp3380
Rp3381
(dp3382
g7
L3765836121225822208L
sbag1
(g2
g3
Ntp3383
Rp3384
(dp3385
g7
L3585991203293757440L
sbag1
(g2
g3
Ntp3386
Rp3387
(dp3388
g7
L5220815460215291904L
sbag1
(g2
g3
Ntp3389
Rp3390
(dp3391
g7
L5220850644587380736L
sbag1
(g2
g3
Ntp3392
Rp3393
(dp3394
g7
L5068519905628782592L
sbag1
(g2
g3
Ntp3395
Rp3396
(dp3397
g7
L9803822092221677568L
sbag1
(g2
g3
Ntp3398
Rp3399
(dp3400
g7
L9263552589780221952L
sbag1
(g2
g3
Ntp3401
Rp3402
(dp3403
g7
L9803896584134459392L
sbag1
(g2
g3
Ntp3404
Rp3405
(dp3406
g7
L9803823741489119232L
sbag1
(g2
g3
Ntp3407
Rp3408
(dp3409
g7
L7678637364666695680L
sbag1
(g2
g3
Ntp3410
Rp3411
(dp3412
g7
L648518346341351424L
sbag1
(g2
g3
Ntp3413
Rp3414
(dp3415
g7
L10110581163446763520L
sbag1
(g2
g3
Ntp3416
Rp3417
(dp3418
g7
L7705658962430918656L
sbag1
(g2
g3
Ntp3419
Rp3420
(dp3421
g7
L1500824575821217792L
sbag1
(g2
g3
Ntp3422
Rp3423
(dp3424
g7
L9926594952148549632L
sbag1
(g2
g3
Ntp3425
Rp3426
(dp3427
g7
L9279908924755017728L
sbag1
(g2
g3
Ntp3428
Rp3429
(dp3430
g7
L9565645608534933504L
sbag1
(g2
g3
Ntp3431
Rp3432
(dp3433
g7
L4291930444884082688L
sbag1
(g2
g3
Ntp3434
Rp3435
(dp3436
g7
L9601674405553897472L
sbag1
(g2
g3
Ntp3437
Rp3438
(dp3439
g7
L5220182141517692928L
sbag1
(g2
g3
Ntp3440
Rp3441
(dp3442
g7
L1382534716858564608L
sbag1
(g2
g3
Ntp3443
Rp3444
(dp3445
g7
L9674224580801069056L
sbag1
(g2
g3
Ntp3446
Rp3447
(dp3448
g7
L6090608322623307776L
sbag1
(g2
g3
Ntp3449
Rp3450
(dp3451
g7
L5168373153616887808L
sbag1
(g2
g3
Ntp3452
Rp3453
(dp3454
g7
L6090643506995396608L
sbag1
(g2
g3
Ntp3455
Rp3456
(dp3457
g7
L5226378989051838464L
sbag1
(g2
g3
Ntp3458
Rp3459
(dp3460
g7
L5226387785144860672L
sbag1
(g2
g3
Ntp3461
Rp3462
(dp3463
g7
L4089268461652410368L
sbag1
(g2
g3
Ntp3464
Rp3465
(dp3466
g7
L969681294768209920L
sbag1
(g2
g3
Ntp3467
Rp3468
(dp3469
g7
L1356779756489539584L
sbag1
(g2
g3
Ntp3470
Rp3471
(dp3472
g7
L5171852008407171072L
sbag1
(g2
g3
Ntp3473
Rp3474
(dp3475
g7
L5154299404781355008L
sbag1
(g2
g3
Ntp3476
Rp3477
(dp3478
g7
L5219830297796804608L
sbag1
(g2
g3
Ntp3479
Rp3480
(dp3481
g7
L7751187539913867264L
sbag1
(g2
g3
Ntp3482
Rp3483
(dp3484
g7
L9912422779842461696L
sbag1
(g2
g3
Ntp3485
Rp3486
(dp3487
g7
L6093480246995058688L
sbag1
(g2
g3
Ntp3488
Rp3489
(dp3490
g7
L9923589419934154752L
sbag1
(g2
g3
Ntp3491
Rp3492
(dp3493
g7
L9923580623841132544L
sbag1
(g2
g3
Ntp3494
Rp3495
(dp3496
g7
L5532958015247876096L
sbag1
(g2
g3
Ntp3497
Rp3498
(dp3499
g7
L5532966811340898304L
sbag1
(g2
g3
Ntp3500
Rp3501
(dp3502
g7
L5532975607433920512L
sbag1
(g2
g3
Ntp3503
Rp3504
(dp3505
g7
L9290644556288622592L
sbag1
(g2
g3
Ntp3506
Rp3507
(dp3508
g7
L5062890406094569472L
sbag1
(g2
g3
Ntp3509
Rp3510
(dp3511
g7
L9263761978025836544L
sbag1
(g2
g3
Ntp3512
Rp3513
(dp3514
g7
L5064016306001412096L
sbag1
(g2
g3
Ntp3515
Rp3516
(dp3517
g7
L1392738184764325888L
sbag1
(g2
g3
Ntp3518
Rp3519
(dp3520
g7
L955343663142010880L
sbag1
(g2
g3
Ntp3521
Rp3522
(dp3523
g7
L9279737400941084672L
sbag1
(g2
g3
Ntp3524
Rp3525
(dp3526
g7
L1279022294173220864L
sbag1
(g2
g3
Ntp3527
Rp3528
(dp3529
g7
L9280018875917795328L
sbag1
(g2
g3
Ntp3530
Rp3531
(dp3532
g7
L1382429232461774848L
sbag1
(g2
g3
Ntp3533
Rp3534
(dp3535
g7
L5926737109619572736L
sbag1
(g2
g3
Ntp3536
Rp3537
(dp3538
g7
L955537177188499456L
sbag1
(g2
g3
Ntp3539
Rp3540
(dp3541
g7
L5177046101336784896L
sbag1
(g2
g3
Ntp3542
Rp3543
(dp3544
g7
L955677914676854784L
sbag1
(g2
g3
Ntp3545
Rp3546
(dp3547
g7
L5221624700773335040L
sbag1
(g2
g3
Ntp3548
Rp3549
(dp3550
g7
L9931633447002963968L
sbag1
(g2
g3
Ntp3551
Rp3552
(dp3553
g7
L5219601599378227200L
sbag1
(g2
g3
Ntp3554
Rp3555
(dp3556
g7
L5314247560297185280L
sbag1
(g2
g3
Ntp3557
Rp3558
(dp3559
g7
L9932055659468029952L
sbag1
(g2
g3
Ntp3560
Rp3561
(dp3562
g7
L1352205788117991424L
sbag1
(g2
g3
Ntp3563
Rp3564
(dp3565
g7
L3748124088413978624L
sbag1
(g2
g3
Ntp3566
Rp3567
(dp3568
g7
L3748128486460489728L
sbag1
(g2
g3
Ntp3569
Rp3570
(dp3571
g7
L5153965153246511104L
sbag1
(g2
g3
Ntp3572
Rp3573
(dp3574
g7
L6924777008291381248L
sbag1
(g2
g3
Ntp3575
Rp3576
(dp3577
g7
L5954884607290638336L
sbag1
(g2
g3
Ntp3578
Rp3579
(dp3580
g7
L9926595416005017600L
sbag1
(g2
g3
Ntp3581
Rp3582
(dp3583
g7
L6094794163390251008L
sbag1
(g2
g3
Ntp3584
Rp3585
(dp3586
g7
L9810810313249914880L
sbag1
(g2
g3
Ntp3587
Rp3588
(dp3589
g7
L5134948000132497408L
sbag1
(g2
g3
Ntp3590
Rp3591
(dp3592
g7
L5196028070078709760L
sbag1
(g2
g3
Ntp3593
Rp3594
(dp3595
g7
L7747317258984095744L
sbag1
(g2
g3
Ntp3596
Rp3597
(dp3598
g7
L7749569058797780992L
sbag1
(g2
g3
Ntp3599
Rp3600
(dp3601
g7
L3752624389506465792L
sbag1
(g2
g3
Ntp3602
Rp3603
(dp3604
g7
L9061242450269437952L
sbag1
(g2
g3
Ntp3605
Rp3606
(dp3607
g7
L8989184856231510016L
sbag1
(g2
g3
Ntp3608
Rp3609
(dp3610
g7
L9025213653250473984L
sbag1
(g2
g3
Ntp3611
Rp3612
(dp3613
g7
L5226409775377416192L
sbag1
(g2
g3
Ntp3614
Rp3615
(dp3616
g7
L7656119366529843200L
sbag1
(g2
g3
Ntp3617
Rp3618
(dp3619
g7
L10831157103826042880L
sbag1
(g2
g3
Ntp3620
Rp3621
(dp3622
g7
L8966666858094657536L
sbag1
(g2
g3
Ntp3623
Rp3624
(dp3625
g7
L8948652459585175552L
sbag1
(g2
g3
Ntp3626
Rp3627
(dp3628
g7
L8957659658839916544L
sbag1
(g2
g3
Ntp3629
Rp3630
(dp3631
g7
L8943022960050962432L
sbag1
(g2
g3
Ntp3632
Rp3633
(dp3634
g7
L8938519360423591936L
sbag1
(g2
g3
Ntp3635
Rp3636
(dp3637
g7
L8940771160237277184L
sbag1
(g2
g3
Ntp3638
Rp3639
(dp3640
g7
L5136073900039340032L
sbag1
(g2
g3
Ntp3641
Rp3642
(dp3643
g7
L8935986085633196032L
sbag1
(g2
g3
Ntp3644
Rp3645
(dp3646
g7
L8936549035586617344L
sbag1
(g2
g3
Ntp3647
Rp3648
(dp3649
g7
L9260955818193321984L
sbag1
(g2
g3
Ntp3650
Rp3651
(dp3652
g7
L7133701809754865664L
sbag1
(g2
g3
Ntp3653
Rp3654
(dp3655
g7
L9744663693722910720L
sbag1
(g2
g3
Ntp3656
Rp3657
(dp3658
g7
L9739315669165408256L
sbag1
(g2
g3
Ntp3659
Rp3660
(dp3661
g7
L3592676233990635520L
sbag1
(g2
g3
Ntp3662
Rp3663
(dp3664
g7
L7277816997830721536L
sbag1
(g2
g3
Ntp3665
Rp3666
(dp3667
g7
L5070560599209934848L
sbag1
(g2
g3
Ntp3668
Rp3669
(dp3670
g7
L5070701336698290176L
sbag1
(g2
g3
Ntp3671
Rp3672
(dp3673
g7
L5070208755489046528L
sbag1
(g2
g3
Ntp3674
Rp3675
(dp3676
g7
L5163478127850029056L
sbag1
(g2
g3
Ntp3677
Rp3678
(dp3679
g7
L9696249997728677888L
sbag1
(g2
g3
Ntp3680
Rp3681
(dp3682
g7
L9260979732571226112L
sbag1
(g2
g3
Ntp3683
Rp3684
(dp3685
g7
L9746915493536595968L
sbag1
(g2
g3
Ntp3686
Rp3687
(dp3688
g7
L9260962140385181696L
sbag1
(g2
g3
Ntp3689
Rp3690
(dp3691
g7
L6090691885507018752L
sbag1
(g2
g3
Ntp3692
Rp3693
(dp3694
g7
L9753670892977651712L
sbag1
(g2
g3
Ntp3695
Rp3696
(dp3697
g7
L5221363291883831296L
sbag1
(g2
g3
Ntp3698
Rp3699
(dp3700
g7
L10721663337885597696L
sbag1
(g2
g3
Ntp3701
Rp3702
(dp3703
g7
L946037396724514816L
sbag1
(g2
g3
Ntp3704
Rp3705
(dp3706
g7
L9260970936478203904L
sbag1
(g2
g3
Ntp3707
Rp3708
(dp3709
g7
L5949255107756425216L
sbag1
(g2
g3
Ntp3710
Rp3711
(dp3712
g7
L6926254751919112192L
sbag1
(g2
g3
Ntp3713
Rp3714
(dp3715
g7
L1516587174517014528L
sbag1
(g2
g3
Ntp3716
Rp3717
(dp3718
g7
L1518838974330699776L
sbag1
(g2
g3
Ntp3719
Rp3720
(dp3721
g7
L5458362748373041152L
sbag1
(g2
g3
Ntp3722
Rp3723
(dp3724
g7
L5151751836339798016L
sbag1
(g2
g3
Ntp3725
Rp3726
(dp3727
g7
L5151754035363053568L
sbag1
(g2
g3
Ntp3728
Rp3729
(dp3730
g7
L5151756234386309120L
sbag1
(g2
g3
Ntp3731
Rp3732
(dp3733
g7
L5171831736161533952L
sbag1
(g2
g3
Ntp3734
Rp3735
(dp3736
g7
L6093862877041524736L
sbag1
(g2
g3
Ntp3737
Rp3738
(dp3739
g7
L6091399970995306496L
sbag1
(g2
g3
Ntp3740
Rp3741
(dp3742
g7
L6091962920948727808L
sbag1
(g2
g3
Ntp3743
Rp3744
(dp3745
g7
L7043629817207455744L
sbag1
(g2
g3
Ntp3746
Rp3747
(dp3748
g7
L9836987486084005888L
sbag1
(g2
g3
Ntp3749
Rp3750
(dp3751
g7
L1499417200937664512L
sbag1
(g2
g3
Ntp3752
Rp3753
(dp3754
g7
L1355864962815229952L
sbag1
(g2
g3
Ntp3755
Rp3756
(dp3757
g7
L3590494802921127936L
sbag1
(g2
g3
Ntp3758
Rp3759
(dp3760
g7
L6971572223169527808L
sbag1
(g2
g3
Ntp3761
Rp3762
(dp3763
g7
L9867668258545467392L
sbag1
(g2
g3
Ntp3764
Rp3765
(dp3766
g7
L5146558842921811968L
sbag1
(g2
g3
Ntp3767
Rp3768
(dp3769
g7
L5146699580410167296L
sbag1
(g2
g3
Ntp3770
Rp3771
(dp3772
g7
L7007601020188491776L
sbag1
(g2
g3
Ntp3773
Rp3774
(dp3775
g7
L9803822590437883904L
sbag1
(g2
g3
Ntp3776
Rp3777
(dp3778
g7
L5532742510968832000L
sbag1
(g2
g3
Ntp3779
Rp3780
(dp3781
g7
L6918936402524635136L
sbag1
(g2
g3
Ntp3782
Rp3783
(dp3784
g7
L6919499352478056448L
sbag1
(g2
g3
Ntp3785
Rp3786
(dp3787
g7
L9264748858431242240L
sbag1
(g2
g3
Ntp3788
Rp3789
(dp3790
g7
L9926593766737575936L
sbag1
(g2
g3
Ntp3791
Rp3792
(dp3793
g7
L9675064607684689920L
sbag1
(g2
g3
Ntp3794
Rp3795
(dp3796
g7
L67553994410557440L
sbag1
(g2
g3
Ntp3797
Rp3798
(dp3799
g7
L9928537222259146752L
sbag1
(g2
g3
Ntp3800
Rp3801
(dp3802
g7
L3499296910466875392L
sbag1
(g2
g3
Ntp3803
Rp3804
(dp3805
g7
L3508304109721616384L
sbag1
(g2
g3
Ntp3806
Rp3807
(dp3808
g7
L6940047025777934336L
sbag1
(g2
g3
Ntp3809
Rp3810
(dp3811
g7
L5180950192249110528L
sbag1
(g2
g3
Ntp3812
Rp3813
(dp3814
g7
L9278048551080820736L
sbag1
(g2
g3
Ntp3815
Rp3816
(dp3817
g7
L1345168913700225024L
sbag1
(g2
g3
Ntp3818
Rp3819
(dp3820
g7
L9278158502243598336L
sbag1
(g2
g3
Ntp3821
Rp3822
(dp3823
g7
L963981426489819136L
sbag1
(g2
g3
Ntp3824
Rp3825
(dp3826
g7
L964122163978174464L
sbag1
(g2
g3
Ntp3827
Rp3828
(dp3829
g7
L6011179602632769536L
sbag1
(g2
g3
Ntp3830
Rp3831
(dp3832
g7
L955414031886188544L
sbag1
(g2
g3
Ntp3833
Rp3834
(dp3835
g7
L9926595158306979840L
sbag1
(g2
g3
Ntp3836
Rp3837
(dp3838
g7
L9926595192666718208L
sbag1
(g2
g3
Ntp3839
Rp3840
(dp3841
g7
L5165839878826491904L
sbag1
(g2
g3
Ntp3842
Rp3843
(dp3844
g7
L5201657569612922880L
sbag1
(g2
g3
Ntp3845
Rp3846
(dp3847
g7
L6094707301971656704L
sbag1
(g2
g3
Ntp3848
Rp3849
(dp3850
g7
L10119588362701504512L
sbag1
(g2
g3
Ntp3851
Rp3852
(dp3853
g7
L5156832679571750912L
sbag1
(g2
g3
Ntp3854
Rp3855
(dp3856
g7
L5170765690918928384L
sbag1
(g2
g3
Ntp3857
Rp3858
(dp3859
g7
L5170202740965507072L
sbag1
(g2
g3
Ntp3860
Rp3861
(dp3862
g7
L9923602545354211328L
sbag1
(g2
g3
Ntp3863
Rp3864
(dp3865
g7
L943574490678296576L
sbag1
(g2
g3
Ntp3866
Rp3867
(dp3868
g7
L6920906727361609728L
sbag1
(g2
g3
Ntp3869
Rp3870
(dp3871
g7
L943715228166651904L
sbag1
(g2
g3
Ntp3872
Rp3873
(dp3874
g7
L7700029462896705536L
sbag1
(g2
g3
Ntp3875
Rp3876
(dp3877
g7
L3593591027664945152L
sbag1
(g2
g3
Ntp3878
Rp3879
(dp3880
g7
L6923158527175294976L
sbag1
(g2
g3
Ntp3881
Rp3882
(dp3883
g7
L7715409431546036224L
sbag1
(g2
g3
Ntp3884
Rp3885
(dp3886
g7
L1382112504393498624L
sbag1
(g2
g3
Ntp3887
Rp3888
(dp3889
g7
L5219460861889871872L
sbag1
(g2
g3
Ntp3890
Rp3891
(dp3892
g7
L9928115009794080768L
sbag1
(g2
g3
Ntp3893
Rp3894
(dp3895
g7
L9933533403095760896L
sbag1
(g2
g3
Ntp3896
Rp3897
(dp3898
g7
L9278167298336620544L
sbag1
(g2
g3
Ntp3899
Rp3900
(dp3901
g7
L5151748812682821632L
sbag1
(g2
g3
Ntp3902
Rp3903
(dp3904
g7
L6142909891733356544L
sbag1
(g2
g3
Ntp3905
Rp3906
(dp3907
g7
L5151749912194449408L
sbag1
(g2
g3
Ntp3908
Rp3909
(dp3910
g7
L3772890587829633024L
sbag1
(g2
g3
Ntp3911
Rp3912
(dp3913
g7
L9802366063948595200L
sbag1
(g2
g3
Ntp3914
Rp3915
(dp3916
g7
L9849372385059274752L
sbag1
(g2
g3
Ntp3917
Rp3918
(dp3919
g7
L5222222835098845184L
sbag1
(g2
g3
Ntp3920
Rp3921
(dp3922
g7
L3750372589692780544L
sbag1
(g2
g3
Ntp3923
Rp3924
(dp3925
g7
L5223542249052176384L
sbag1
(g2
g3
Ntp3926
Rp3927
(dp3928
g7
L9287548331544805376L
sbag1
(g2
g3
Ntp3929
Rp3930
(dp3931
g7
L9294303730985861120L
sbag1
(g2
g3
Ntp3932
Rp3933
(dp3934
g7
L9292051931172175872L
sbag1
(g2
g3
Ntp3935
Rp3936
(dp3937
g7
L9261072091547959296L
sbag1
(g2
g3
Ntp3938
Rp3939
(dp3940
g7
L955383245560610816L
sbag1
(g2
g3
Ntp3941
Rp3942
(dp3943
g7
L9285490045777608704L
sbag1
(g2
g3
Ntp3944
Rp3945
(dp3946
g7
L5151750255791833088L
sbag1
(g2
g3
Ntp3947
Rp3948
(dp3949
g7
L5151750393230786560L
sbag1
(g2
g3
Ntp3950
Rp3951
(dp3952
g7
L9803491963855437824L
sbag1
(g2
g3
Ntp3953
Rp3954
(dp3955
g7
L6918021608850325504L
sbag1
(g2
g3
Ntp3956
Rp3957
(dp3958
g7
L1347420713513910272L
sbag1
(g2
g3
Ntp3959
Rp3960
(dp3961
g7
L7800234554605699072L
sbag1
(g2
g3
Ntp3962
Rp3963
(dp3964
g7
L1348546613420752896L
sbag1
(g2
g3
Ntp3965
Rp3966
(dp3967
g7
L9289518656381779968L
sbag1
(g2
g3
Ntp3968
Rp3969
(dp3970
g7
L9811865844412579840L
sbag1
(g2
g3
Ntp3971
Rp3972
(dp3973
g7
L5221388305773363200L
sbag1
(g2
g3
Ntp3974
Rp3975
(dp3976
g7
L1206964700135292928L
sbag1
(g2
g3
Ntp3977
Rp3978
(dp3979
g7
L1242993497154256896L
sbag1
(g2
g3
Ntp3980
Rp3981
(dp3982
g7
L5161406647943299072L
sbag1
(g2
g3
Ntp3983
Rp3984
(dp3985
g7
L5161969597896720384L
sbag1
(g2
g3
Ntp3986
Rp3987
(dp3988
g7
L9705257196983418880L
sbag1
(g2
g3
Ntp3989
Rp3990
(dp3991
g7
L963893465559597056L
sbag1
(g2
g3
Ntp3992
Rp3993
(dp3994
g7
L965177695140839424L
sbag1
(g2
g3
Ntp3995
Rp3996
(dp3997
g7
L5226519726540193792L
sbag1
(g2
g3
Ntp3998
Rp3999
(dp4000
g7
L5154048716130222080L
sbag1
(g2
g3
Ntp4001
Rp4002
(dp4003
g7
L10898711098236600320L
sbag1
(g2
g3
Ntp4004
Rp4005
(dp4006
g7
L3592215538618597376L
sbag1
(g2
g3
Ntp4007
Rp4008
(dp4009
g7
L10308739547051065344L
sbag1
(g2
g3
Ntp4010
Rp4011
(dp4012
g7
L5533076762503675904L
sbag1
(g2
g3
Ntp4013
Rp4014
(dp4015
g7
L7752665283541598208L
sbag1
(g2
g3
Ntp4016
Rp4017
(dp4018
g7
L9279825361871306752L
sbag1
(g2
g3
Ntp4019
Rp4020
(dp4021
g7
L9279860546243395584L
sbag1
(g2
g3
Ntp4022
Rp4023
(dp4024
g7
L5221368514564063232L
sbag1
(g2
g3
Ntp4025
Rp4026
(dp4027
g7
L1375568211184975872L
sbag1
(g2
g3
Ntp4028
Rp4029
(dp4030
g7
L5155706779664908288L
sbag1
(g2
g3
Ntp4031
Rp4032
(dp4033
g7
L5155847517153263616L
sbag1
(g2
g3
Ntp4034
Rp4035
(dp4036
g7
L9926594264953782272L
sbag1
(g2
g3
Ntp4037
Rp4038
(dp4039
g7
L9926594299313520640L
sbag1
(g2
g3
Ntp4040
Rp4041
(dp4042
g7
L6090674293320974336L
sbag1
(g2
g3
Ntp4043
Rp4044
(dp4045
g7
L5151735343665381376L
sbag1
(g2
g3
Ntp4046
Rp4047
(dp4048
g7
L7715721692848324608L
sbag1
(g2
g3
Ntp4049
Rp4050
(dp4051
g7
L7752102333588176896L
sbag1
(g2
g3
Ntp4052
Rp4053
(dp4054
g7
L5067130122931273728L
sbag1
(g2
g3
Ntp4055
Rp4056
(dp4057
g7
L5067165307303362560L
sbag1
(g2
g3
Ntp4058
Rp4059
(dp4060
g7
L9813062113063600128L
sbag1
(g2
g3
Ntp4061
Rp4062
(dp4063
g7
L5178646990266826752L
sbag1
(g2
g3
Ntp4064
Rp4065
(dp4066
g7
L10934739895255564288L
sbag1
(g2
g3
Ntp4067
Rp4068
(dp4069
g7
L5067208188256845824L
sbag1
(g2
g3
Ntp4070
Rp4071
(dp4072
g7
L10214163954876284928L
sbag1
(g2
g3
Ntp4073
Rp4074
(dp4075
g7
L9809121463389650944L
sbag1
(g2
g3
Ntp4076
Rp4077
(dp4078
g7
L949415096445042688L
sbag1
(g2
g3
Ntp4079
Rp4080
(dp4081
g7
L6094808457041412096L
sbag1
(g2
g3
Ntp4082
Rp4083
(dp4084
g7
L7698424175920152576L
sbag1
(g2
g3
Ntp4085
Rp4086
(dp4087
g7
L7698432972013174784L
sbag1
(g2
g3
Ntp4088
Rp4089
(dp4090
g7
L9803822435819061248L
sbag1
(g2
g3
Ntp4091
Rp4092
(dp4093
g7
L4499096027743125504L
sbag1
(g2
g3
Ntp4094
Rp4095
(dp4096
g7
L5961640006731694080L
sbag1
(g2
g3
Ntp4097
Rp4098
(dp4099
g7
L9811994006236692480L
sbag1
(g2
g3
Ntp4100
Rp4101
(dp4102
g7
L6090684188925624320L
sbag1
(g2
g3
Ntp4103
Rp4104
(dp4105
g7
L5177732196592517120L
sbag1
(g2
g3
Ntp4106
Rp4107
(dp4108
g7
L7714947636662370304L
sbag1
(g2
g3
Ntp4109
Rp4110
(dp4111
g7
L5217150787959914496L
sbag1
(g2
g3
Ntp4112
Rp4113
(dp4114
g7
L7836263351624663040L
sbag1
(g2
g3
Ntp4115
Rp4116
(dp4117
g7
L9284575252103299072L
sbag1
(g2
g3
Ntp4118
Rp4119
(dp4120
g7
L5151750668108693504L
sbag1
(g2
g3
Ntp4121
Rp4122
(dp4123
g7
L5532987702061826048L
sbag1
(g2
g3
Ntp4124
Rp4125
(dp4126
g7
L7698833194245685248L
sbag1
(g2
g3
Ntp4127
Rp4128
(dp4129
g7
L1166432303488958464L
sbag1
(g2
g3
Ntp4130
Rp4131
(dp4132
g7
L1175439502743699456L
sbag1
(g2
g3
Ntp4133
Rp4134
(dp4135
g7
L5221394902843129856L
sbag1
(g2
g3
Ntp4136
Rp4137
(dp4138
g7
L9935873163839668224L
sbag1
(g2
g3
Ntp4139
Rp4140
(dp4141
g7
L951666896258727936L
sbag1
(g2
g3
Ntp4142
Rp4143
(dp4144
g7
L5180951085602308096L
sbag1
(g2
g3
Ntp4145
Rp4146
(dp4147
g7
L5180951223041261568L
sbag1
(g2
g3
Ntp4148
Rp4149
(dp4150
g7
L5194057745241735168L
sbag1
(g2
g3
Ntp4151
Rp4152
(dp4153
g7
L1498273708844777472L
sbag1
(g2
g3
Ntp4154
Rp4155
(dp4156
g7
L1544734672188080128L
sbag1
(g2
g3
Ntp4157
Rp4158
(dp4159
g7
L6094830447273967616L
sbag1
(g2
g3
Ntp4160
Rp4161
(dp4162
g7
L5221370713587318784L
sbag1
(g2
g3
Ntp4163
Rp4164
(dp4165
g7
L6094900816018145280L
sbag1
(g2
g3
Ntp4166
Rp4167
(dp4168
g7
L9261934108664135680L
sbag1
(g2
g3
Ntp4169
Rp4170
(dp4171
g7
L6114762394062290944L
sbag1
(g2
g3
Ntp4172
Rp4173
(dp4174
g7
L944911496817672192L
sbag1
(g2
g3
Ntp4175
Rp4176
(dp4177
g7
L7715421801051848704L
sbag1
(g2
g3
Ntp4178
Rp4179
(dp4180
g7
L1382459950067875840L
sbag1
(g2
g3
Ntp4181
Rp4182
(dp4183
g7
L9868846935010443264L
sbag1
(g2
g3
Ntp4184
Rp4185
(dp4186
g7
L9868882119382532096L
sbag1
(g2
g3
Ntp4187
Rp4188
(dp4189
g7
L6093485744553197568L
sbag1
(g2
g3
Ntp4190
Rp4191
(dp4192
g7
L9923599315538804736L
sbag1
(g2
g3
Ntp4193
Rp4194
(dp4195
g7
L9812002183854424064L
sbag1
(g2
g3
Ntp4196
Rp4197
(dp4198
g7
L6093492341622964224L
sbag1
(g2
g3
Ntp4199
Rp4200
(dp4201
g7
L5166174130361335808L
sbag1
(g2
g3
Ntp4202
Rp4203
(dp4204
g7
L5180943870057250816L
sbag1
(g2
g3
Ntp4205
Rp4206
(dp4207
g7
L3748122164268630016L
sbag1
(g2
g3
Ntp4208
Rp4209
(dp4210
g7
L7876795748270997504L
sbag1
(g2
g3
Ntp4211
Rp4212
(dp4213
g7
L9804289109785575424L
sbag1
(g2
g3
Ntp4214
Rp4215
(dp4216
g7
L9811975795575357440L
sbag1
(g2
g3
Ntp4217
Rp4218
(dp4219
g7
L10789762690063532032L
sbag1
(g2
g3
Ntp4220
Rp4221
(dp4222
g7
L9811984591668379648L
sbag1
(g2
g3
Ntp4223
Rp4224
(dp4225
g7
L5226362496377421824L
sbag1
(g2
g3
Ntp4226
Rp4227
(dp4228
g7
L9278470763545886720L
sbag1
(g2
g3
Ntp4229
Rp4230
(dp4231
g7
L3733484091090141184L
sbag1
(g2
g3
Ntp4232
Rp4233
(dp4234
g7
L5222948512773177344L
sbag1
(g2
g3
Ntp4235
Rp4236
(dp4237
g7
L9263640550710444032L
sbag1
(g2
g3
Ntp4238
Rp4239
(dp4240
g7
L9263675735082532864L
sbag1
(g2
g3
Ntp4241
Rp4242
(dp4243
g7
L9868824944777887744L
sbag1
(g2
g3
Ntp4244
Rp4245
(dp4246
g7
L9263710919454621696L
sbag1
(g2
g3
Ntp4247
Rp4248
(dp4249
g7
L5532883248457187328L
sbag1
(g2
g3
Ntp4250
Rp4251
(dp4252
g7
L7695525863269335040L
sbag1
(g2
g3
Ntp4253
Rp4254
(dp4255
g7
L5161054804222410752L
sbag1
(g2
g3
Ntp4256
Rp4257
(dp4258
g7
L5180959263220039680L
sbag1
(g2
g3
Ntp4259
Rp4260
(dp4261
g7
L5163466651697414144L
sbag1
(g2
g3
Ntp4262
Rp4263
(dp4264
g7
L9285789112940363776L
sbag1
(g2
g3
Ntp4265
Rp4266
(dp4267
g7
L1370220186627473408L
sbag1
(g2
g3
Ntp4268
Rp4269
(dp4270
g7
L9935574096676913152L
sbag1
(g2
g3
Ntp4271
Rp4272
(dp4273
g7
L9665569225267216384L
sbag1
(g2
g3
Ntp4274
Rp4275
(dp4276
g7
L9666132175220637696L
sbag1
(g2
g3
Ntp4277
Rp4278
(dp4279
g7
L5180953284625563648L
sbag1
(g2
g3
Ntp4280
Rp4281
(dp4282
g7
L5163429749338406912L
sbag1
(g2
g3
Ntp4283
Rp4284
(dp4285
g7
L5180953422064517120L
sbag1
(g2
g3
Ntp4286
Rp4287
(dp4288
g7
L6090678966245392384L
sbag1
(g2
g3
Ntp4289
Rp4290
(dp4291
g7
L5221365834504470528L
sbag1
(g2
g3
Ntp4292
Rp4293
(dp4294
g7
L126100789566373888L
sbag1
(g2
g3
Ntp4295
Rp4296
(dp4297
g7
L9811993662639308800L
sbag1
(g2
g3
Ntp4298
Rp4299
(dp4300
g7
L90071992547409920L
sbag1
(g2
g3
Ntp4301
Rp4302
(dp4303
g7
L5151750513489870848L
sbag1
(g2
g3
Ntp4304
Rp4305
(dp4306
g7
L5226358098330910720L
sbag1
(g2
g3
Ntp4307
Rp4308
(dp4309
g7
L5226360297354166272L
sbag1
(g2
g3
Ntp4310
Rp4311
(dp4312
g7
L5163394564966318080L
sbag1
(g2
g3
Ntp4313
Rp4314
(dp4315
g7
L9260825800943337472L
sbag1
(g2
g3
Ntp4316
Rp4317
(dp4318
g7
L58546795155816448L
sbag1
(g2
g3
Ntp4319
Rp4320
(dp4321
g7
L9260896169687515136L
sbag1
(g2
g3
Ntp4322
Rp4323
(dp4324
g7
L9811990089226518528L
sbag1
(g2
g3
Ntp4325
Rp4326
(dp4327
g7
L9854931515849310208L
sbag1
(g2
g3
Ntp4328
Rp4329
(dp4330
g7
L3592217737641852928L
sbag1
(g2
g3
Ntp4331
Rp4332
(dp4333
g7
L5250071265607155712L
sbag1
(g2
g3
Ntp4334
Rp4335
(dp4336
g7
L9279891332568973312L
sbag1
(g2
g3
Ntp4337
Rp4338
(dp4339
g7
L9279900128661995520L
sbag1
(g2
g3
Ntp4340
Rp4341
(dp4342
g7
L9935895154072223744L
sbag1
(g2
g3
Ntp4343
Rp4344
(dp4345
g7
L1498502407263354880L
sbag1
(g2
g3
Ntp4346
Rp4347
(dp4348
g7
L8863084066665136128L
sbag1
(g2
g3
Ntp4349
Rp4350
(dp4351
g7
L9675038219405623296L
sbag1
(g2
g3
Ntp4352
Rp4353
(dp4354
g7
L9675047015498645504L
sbag1
(g2
g3
Ntp4355
Rp4356
(dp4357
g7
L5087941679021817856L
sbag1
(g2
g3
Ntp4358
Rp4359
(dp4360
g7
L1343268957607428096L
sbag1
(g2
g3
Ntp4361
Rp4362
(dp4363
g7
L5153454979851223040L
sbag1
(g2
g3
Ntp4364
Rp4365
(dp4366
g7
L9926595965760831488L
sbag1
(g2
g3
Ntp4367
Rp4368
(dp4369
g7
L450359962737049600L
sbag1
(g2
g3
Ntp4370
Rp4371
(dp4372
g7
L486388759756013568L
sbag1
(g2
g3
Ntp4373
Rp4374
(dp4375
g7
L10722859606536617984L
sbag1
(g2
g3
Ntp4376
Rp4377
(dp4378
g7
L9675052513056784384L
sbag1
(g2
g3
Ntp4379
Rp4380
(dp4381
g7
L9675054712080039936L
sbag1
(g2
g3
Ntp4382
Rp4383
(dp4384
g7
L4737786807993761792L
sbag1
(g2
g3
Ntp4385
Rp4386
(dp4387
g7
L9868231208498888704L
sbag1
(g2
g3
Ntp4388
Rp4389
(dp4390
g7
L5173228596965146624L
sbag1
(g2
g3
Ntp4391
Rp4392
(dp4393
g7
L5173791546918567936L
sbag1
(g2
g3
Ntp4394
Rp4395
(dp4396
g7
L9804287735396040704L
sbag1
(g2
g3
Ntp4397
Rp4398
(dp4399
g7
L9818691612597813248L
sbag1
(g2
g3
Ntp4400
Rp4401
(dp4402
g7
L9819254562551234560L
sbag1
(g2
g3
Ntp4403
Rp4404
(dp4405
g7
L9819817512504655872L
sbag1
(g2
g3
Ntp4406
Rp4407
(dp4408
g7
L5152329079944380416L
sbag1
(g2
g3
Ntp4409
Rp4410
(dp4411
g7
L6093581402064814080L
sbag1
(g2
g3
Ntp4412
Rp4413
(dp4414
g7
L5218616436959739904L
sbag1
(g2
g3
Ntp4415
Rp4416
(dp4417
g7
L5218757174448095232L
sbag1
(g2
g3
Ntp4418
Rp4419
(dp4420
g7
L6093722139553169408L
sbag1
(g2
g3
Ntp4421
Rp4422
(dp4423
g7
L1380991002533167104L
sbag1
(g2
g3
Ntp4424
Rp4425
(dp4426
g7
L1380999798626189312L
sbag1
(g2
g3
Ntp4427
Rp4428
(dp4429
g7
L3877599279165997056L
sbag1
(g2
g3
Ntp4430
Rp4431
(dp4432
g7
L1381017390812233728L
sbag1
(g2
g3
Ntp4433
Rp4434
(dp4435
g7
L8935634241912307712L
sbag1
(g2
g3
Ntp4436
Rp4437
(dp4438
g7
L959055614397382656L
sbag1
(g2
g3
Ntp4439
Rp4440
(dp4441
g7
L1160802803954745344L
sbag1
(g2
g3
Ntp4442
Rp4443
(dp4444
g7
L1156299204327374848L
sbag1
(g2
g3
Ntp4445
Rp4446
(dp4447
g7
L1158551004141060096L
sbag1
(g2
g3
Ntp4448
Rp4449
(dp4450
g7
L1154891829443821568L
sbag1
(g2
g3
Ntp4451
Rp4452
(dp4453
g7
L1153765929536978944L
sbag1
(g2
g3
Ntp4454
Rp4455
(dp4456
g7
L1154328879490400256L
sbag1
(g2
g3
Ntp4457
Rp4458
(dp4459
g7
L9263732909687177216L
sbag1
(g2
g3
Ntp4460
Rp4461
(dp4462
g7
L1153132610839379968L
sbag1
(g2
g3
Ntp4463
Rp4464
(dp4465
g7
L1153273348327735296L
sbag1
(g2
g3
Ntp4466
Rp4467
(dp4468
g7
L5224105199005597696L
sbag1
(g2
g3
Ntp4469
Rp4470
(dp4471
g7
L1153414085816090624L
sbag1
(g2
g3
Ntp4472
Rp4473
(dp4474
g7
L9263741705780199424L
sbag1
(g2
g3
Ntp4475
Rp4476
(dp4477
g7
L9927855525049925632L
sbag1
(g2
g3
Ntp4478
Rp4479
(dp4480
g7
L5181180265057222656L
sbag1
(g2
g3
Ntp4481
Rp4482
(dp4483
g7
L9923329935189999616L
sbag1
(g2
g3
Ntp4484
Rp4485
(dp4486
g7
L5170062003477151744L
sbag1
(g2
g3
Ntp4487
Rp4488
(dp4489
g7
L5169217578547019776L
sbag1
(g2
g3
Ntp4490
Rp4491
(dp4492
g7
L5119351427692494848L
sbag1
(g2
g3
Ntp4493
Rp4494
(dp4495
g7
L1153044649909157888L
sbag1
(g2
g3
Ntp4496
Rp4497
(dp4498
g7
L1152974281164980224L
sbag1
(g2
g3
Ntp4499
Rp4500
(dp4501
g7
L1153009465537069056L
sbag1
(g2
g3
Ntp4502
Rp4503
(dp4504
g7
L1152952290932424704L
sbag1
(g2
g3
Ntp4505
Rp4506
(dp4507
g7
L1152934698746380288L
sbag1
(g2
g3
Ntp4508
Rp4509
(dp4510
g7
L1152943494839402496L
sbag1
(g2
g3
Ntp4511
Rp4512
(dp4513
g7
L1152929201188241408L
sbag1
(g2
g3
Ntp4514
Rp4515
(dp4516
g7
L1152924803141730304L
sbag1
(g2
g3
Ntp4517
Rp4518
(dp4519
g7
L1152927002164985856L
sbag1
(g2
g3
Ntp4520
Rp4521
(dp4522
g7
L1152923428752195584L
sbag1
(g2
g3
Ntp4523
Rp4524
(dp4525
g7
L1152922329240567808L
sbag1
(g2
g3
Ntp4526
Rp4527
(dp4528
g7
L1152922878996381696L
sbag1
(g2
g3
Ntp4529
Rp4530
(dp4531
g7
L1152921985643184128L
sbag1
(g2
g3
Ntp4532
Rp4533
(dp4534
g7
L1152921710765277184L
sbag1
(g2
g3
Ntp4535
Rp4536
(dp4537
g7
L1152921848204230656L
sbag1
(g2
g3
Ntp4538
Rp4539
(dp4540
g7
L1152921624865931264L
sbag1
(g2
g3
Ntp4541
Rp4542
(dp4543
g7
L1152921556146454528L
sbag1
(g2
g3
Ntp4544
Rp4545
(dp4546
g7
L1152921590506192896L
sbag1
(g2
g3
Ntp4547
Rp4548
(dp4549
g7
L1152921534671618048L
sbag1
(g2
g3
Ntp4550
Rp4551
(dp4552
g7
L1152921517491748864L
sbag1
(g2
g3
Ntp4553
Rp4554
(dp4555
g7
L1152921526081683456L
sbag1
(g2
g3
Ntp4556
Rp4557
(dp4558
g7
L1152921512123039744L
sbag1
(g2
g3
Ntp4559
Rp4560
(dp4561
g7
L1152921507828072448L
sbag1
(g2
g3
Ntp4562
Rp4563
(dp4564
g7
L1152921509975556096L
sbag1
(g2
g3
Ntp4565
Rp4566
(dp4567
g7
L1152921506485895168L
sbag1
(g2
g3
Ntp4568
Rp4569
(dp4570
g7
L1152921505412153344L
sbag1
(g2
g3
Ntp4571
Rp4572
(dp4573
g7
L1152921505949024256L
sbag1
(g2
g3
Ntp4574
Rp4575
(dp4576
g7
L1152921505076609024L
sbag1
(g2
g3
Ntp4577
Rp4578
(dp4579
g7
L1152921504808173568L
sbag1
(g2
g3
Ntp4580
Rp4581
(dp4582
g7
L1152921504942391296L
sbag1
(g2
g3
Ntp4583
Rp4584
(dp4585
g7
L1152921504724287488L
sbag1
(g2
g3
Ntp4586
Rp4587
(dp4588
g7
L1152921504657178624L
sbag1
(g2
g3
Ntp4589
Rp4590
(dp4591
g7
L1152921504690733056L
sbag1
(g2
g3
Ntp4592
Rp4593
(dp4594
g7
L1152921504636207104L
sbag1
(g2
g3
Ntp4595
Rp4596
(dp4597
g7
L1152921504619429888L
sbag1
(g2
g3
Ntp4598
Rp4599
(dp4600
g7
L7732680560195141632L
sbag1
(g2
g3
Ntp4601
Rp4602
(dp4603
g7
L1152921504627818496L
sbag1
(g2
g3
Ntp4604
Rp4605
(dp4606
g7
L1152921504609992704L
sbag1
(g2
g3
Ntp4607
Rp4608
(dp4609
g7
L1152921504612089856L
sbag1
(g2
g3
Ntp4610
Rp4611
(dp4612
g7
L1152921504608681984L
sbag1
(g2
g3
Ntp4613
Rp4614
(dp4615
g7
L1152921504607633408L
sbag1
(g2
g3
Ntp4616
Rp4617
(dp4618
g7
L1152921504608157696L
sbag1
(g2
g3
Ntp4619
Rp4620
(dp4621
g7
L1152921504607305728L
sbag1
(g2
g3
Ntp4622
Rp4623
(dp4624
g7
L1152921504607043584L
sbag1
(g2
g3
Ntp4625
Rp4626
(dp4627
g7
L1152921504607174656L
sbag1
(g2
g3
Ntp4628
Rp4629
(dp4630
g7
L3592188050827902976L
sbag1
(g2
g3
Ntp4631
Rp4632
(dp4633
g7
L5579959938312044544L
sbag1
(g2
g3
Ntp4634
Rp4635
(dp4636
g7
L5237686366631886848L
sbag1
(g2
g3
Ntp4637
Rp4638
(dp4639
g7
L5534853573294161920L
sbag1
(g2
g3
Ntp4640
Rp4641
(dp4642
g7
L5119255770180878336L
sbag1
(g2
g3
Ntp4643
Rp4644
(dp4645
g7
L5171346233058394112L
sbag1
(g2
g3
Ntp4646
Rp4647
(dp4648
g7
L6924435060175142912L
sbag1
(g2
g3
Ntp4649
Rp4650
(dp4651
g7
L5148458799014608896L
sbag1
(g2
g3
Ntp4652
Rp4653
(dp4654
g7
L5134630241272070144L
sbag1
(g2
g3
Ntp4655
Rp4656
(dp4657
g7
L9931721407933186048L
sbag1
(g2
g3
Ntp4658
Rp4659
(dp4660
g7
L9241386435364257792L
sbag1
(g2
g3
Ntp4661
Rp4662
(dp4663
g7
L9931756592305274880L
sbag1
(g2
g3
Ntp4664
Rp4665
(dp4666
g7
L9931826961049452544L
sbag1
(g2
g3
Ntp4667
Rp4668
(dp4669
g7
L5151713353432825856L
sbag1
(g2
g3
Ntp4670
Rp4671
(dp4672
g7
L6089711121135042560L
sbag1
(g2
g3
Ntp4673
Rp4674
(dp4675
g7
L5151783722177003520L
sbag1
(g2
g3
Ntp4676
Rp4677
(dp4678
g7
L6110258794434920448L
sbag1
(g2
g3
Ntp4679
Rp4680
(dp4681
g7
L6095340620669255680L
sbag1
(g2
g3
Ntp4682
Rp4683
(dp4684
g7
L5190680045521207296L
sbag1
(g2
g3
Ntp4685
Rp4686
(dp4687
g7
L5191242995474628608L
sbag1
(g2
g3
Ntp4688
Rp4689
(dp4690
g7
L5218897911936450560L
sbag1
(g2
g3
Ntp4691
Rp4692
(dp4693
g7
L5134173943946543104L
sbag1
(g2
g3
Ntp4694
Rp4695
(dp4696
g7
L5134314681434898432L
sbag1
(g2
g3
Ntp4697
Rp4698
(dp4699
g7
L5134455418923253760L
sbag1
(g2
g3
Ntp4700
Rp4701
(dp4702
g7
L5243315866166099968L
sbag1
(g2
g3
Ntp4703
Rp4704
(dp4705
g7
L9931796174723874816L
sbag1
(g2
g3
Ntp4706
Rp4707
(dp4708
g7
L1343427287281827840L
sbag1
(g2
g3
Ntp4709
Rp4710
(dp4711
g7
L9675056086469574656L
sbag1
(g2
g3
Ntp4712
Rp4713
(dp4714
g7
L9675056636225388544L
sbag1
(g2
g3
Ntp4715
Rp4716
(dp4717
g7
L5154580879758065664L
sbag1
(g2
g3
Ntp4718
Rp4719
(dp4720
g7
L9773937091300818944L
sbag1
(g2
g3
Ntp4721
Rp4722
(dp4723
g7
L9776188891114504192L
sbag1
(g2
g3
Ntp4724
Rp4725
(dp4726
g7
L3748151576204673024L
sbag1
(g2
g3
Ntp4727
Rp4728
(dp4729
g7
L5067187297535918080L
sbag1
(g2
g3
Ntp4730
Rp4731
(dp4732
g7
L5180946069080506368L
sbag1
(g2
g3
Ntp4733
Rp4734
(dp4735
g7
L5067196093628940288L
sbag1
(g2
g3
Ntp4736
Rp4737
(dp4738
g7
L5067213685814984704L
sbag1
(g2
g3
Ntp4739
Rp4740
(dp4741
g7
L9861176741895077888L
sbag1
(g2
g3
Ntp4742
Rp4743
(dp4744
g7
L9811992288249774080L
sbag1
(g2
g3
Ntp4745
Rp4746
(dp4747
g7
L5064579255954833408L
sbag1
(g2
g3
Ntp4748
Rp4749
(dp4750
g7
L9923558633608577024L
sbag1
(g2
g3
Ntp4751
Rp4752
(dp4753
g7
L5065142205908254720L
sbag1
(g2
g3
Ntp4754
Rp4755
(dp4756
g7
L9931778582537830400L
sbag1
(g2
g3
Ntp4757
Rp4758
(dp4759
g7
L9284663213033521152L
sbag1
(g2
g3
Ntp4760
Rp4761
(dp4762
g7
L9935903950165245952L
sbag1
(g2
g3
Ntp4763
Rp4764
(dp4765
g7
L9931804970816897024L
sbag1
(g2
g3
Ntp4766
Rp4767
(dp4768
g7
L5543931141293080576L
sbag1
(g2
g3
Ntp4769
Rp4770
(dp4771
g7
L959477826862448640L
sbag1
(g2
g3
Ntp4772
Rp4773
(dp4774
g7
L5154387365711577088L
sbag1
(g2
g3
Ntp4775
Rp4776
(dp4777
g7
L5154422550083665920L
sbag1
(g2
g3
Ntp4778
Rp4779
(dp4780
g7
L5154457734455754752L
sbag1
(g2
g3
Ntp4781
Rp4782
(dp4783
g7
L4297559944418295808L
sbag1
(g2
g3
Ntp4784
Rp4785
(dp4786
g7
L5221366126562246656L
sbag1
(g2
g3
Ntp4787
Rp4788
(dp4789
g7
L4302063544045666304L
sbag1
(g2
g3
Ntp4790
Rp4791
(dp4792
g7
L1373879361324711936L
sbag1
(g2
g3
Ntp4793
Rp4794
(dp4795
g7
L4304315343859351552L
sbag1
(g2
g3
Ntp4796
Rp4797
(dp4798
g7
L9923601239684153344L
sbag1
(g2
g3
Ntp4799
Rp4800
(dp4801
g7
L5221390573516095488L
sbag1
(g2
g3
Ntp4802
Rp4803
(dp4804
g7
L4395513236313604096L
sbag1
(g2
g3
Ntp4805
Rp4806
(dp4807
g7
L9804213243483258880L
sbag1
(g2
g3
Ntp4808
Rp4809
(dp4810
g7
L5226363870766956544L
sbag1
(g2
g3
Ntp4811
Rp4812
(dp4813
g7
L5226364420522770432L
sbag1
(g2
g3
Ntp4814
Rp4815
(dp4816
g7
L5226364970278584320L
sbag1
(g2
g3
Ntp4817
Rp4818
(dp4819
g7
L44754521296994304L
sbag1
(g2
g3
Ntp4820
Rp4821
(dp4822
g7
L9815313912877285376L
sbag1
(g2
g3
Ntp4823
Rp4824
(dp4825
g7
L5180949590953689088L
sbag1
(g2
g3
Ntp4826
Rp4827
(dp4828
g7
L10787247007459180544L
sbag1
(g2
g3
Ntp4829
Rp4830
(dp4831
g7
L8935352766935597056L
sbag1
(g2
g3
Ntp4832
Rp4833
(dp4834
g7
L8935493504423952384L
sbag1
(g2
g3
Ntp4835
Rp4836
(dp4837
g7
L9633199602945490944L
sbag1
(g2
g3
Ntp4838
Rp4839
(dp4840
g7
L6093423072390414336L
sbag1
(g2
g3
Ntp4841
Rp4842
(dp4843
g7
L9926773605608194048L
sbag1
(g2
g3
Ntp4844
Rp4845
(dp4846
g7
L5134648932969742336L
sbag1
(g2
g3
Ntp4847
Rp4848
(dp4849
g7
L9868807352591843328L
sbag1
(g2
g3
Ntp4850
Rp4851
(dp4852
g7
L9868816148684865536L
sbag1
(g2
g3
Ntp4853
Rp4854
(dp4855
g7
L943803189096873984L
sbag1
(g2
g3
Ntp4856
Rp4857
(dp4858
g7
L9682457723869855744L
sbag1
(g2
g3
Ntp4859
Rp4860
(dp4861
g7
L943873557841051648L
sbag1
(g2
g3
Ntp4862
Rp4863
(dp4864
g7
L10788654382342733824L
sbag1
(g2
g3
Ntp4865
Rp4866
(dp4867
g7
L10723000344024973312L
sbag1
(g2
g3
Ntp4868
Rp4869
(dp4870
g7
L5151761731944448000L
sbag1
(g2
g3
Ntp4871
Rp4872
(dp4873
g7
L10790343232202997760L
sbag1
(g2
g3
Ntp4874
Rp4875
(dp4876
g7
L5534079517108207616L
sbag1
(g2
g3
Ntp4877
Rp4878
(dp4879
g7
L9757330067674890240L
sbag1
(g2
g3
Ntp4880
Rp4881
(dp4882
g7
L6094936000390234112L
sbag1
(g2
g3
Ntp4883
Rp4884
(dp4885
g7
L6093299927088103424L
sbag1
(g2
g3
Ntp4886
Rp4887
(dp4888
g7
L6095006369134411776L
sbag1
(g2
g3
Ntp4889
Rp4890
(dp4891
g7
L956170495886098432L
sbag1
(g2
g3
Ntp4892
Rp4893
(dp4894
g7
L5602477936448897024L
sbag1
(g2
g3
Ntp4895
Rp4896
(dp4897
g7
L9825447012038868992L
sbag1
(g2
g3
Ntp4898
Rp4899
(dp4900
g7
L9826572911945711616L
sbag1
(g2
g3
Ntp4901
Rp4902
(dp4903
g7
L9278196710272663552L
sbag1
(g2
g3
Ntp4904
Rp4905
(dp4906
g7
L3768386988202262528L
sbag1
(g2
g3
Ntp4907
Rp4908
(dp4909
g7
L9279879237941067776L
sbag1
(g2
g3
Ntp4910
Rp4911
(dp4912
g7
L3770638788015947776L
sbag1
(g2
g3
Ntp4913
Rp4914
(dp4915
g7
L9279881436964323328L
sbag1
(g2
g3
Ntp4916
Rp4917
(dp4918
g7
L9279885835010834432L
sbag1
(g2
g3
Ntp4919
Rp4920
(dp4921
g7
L1381005296184328192L
sbag1
(g2
g3
Ntp4922
Rp4923
(dp4924
g7
L5181321002545577984L
sbag1
(g2
g3
Ntp4925
Rp4926
(dp4927
g7
L10263703550777360384L
sbag1
(g2
g3
Ntp4928
Rp4929
(dp4930
g7
L1382436860323692544L
sbag1
(g2
g3
Ntp4931
Rp4932
(dp4933
g7
L10841290202987626496L
sbag1
(g2
g3
Ntp4934
Rp4935
(dp4936
g7
L9263758198454616064L
sbag1
(g2
g3
Ntp4937
Rp4938
(dp4939
g7
L9935911646746640384L
sbag1
(g2
g3
Ntp4940
Rp4941
(dp4942
g7
L9935913845769895936L
sbag1
(g2
g3
Ntp4943
Rp4944
(dp4945
g7
L9284553261870743552L
sbag1
(g2
g3
Ntp4946
Rp4947
(dp4948
g7
L3832563282892292096L
sbag1
(g2
g3
Ntp4949
Rp4950
(dp4951
g7
L9263760397477871616L
sbag1
(g2
g3
Ntp4952
Rp4953
(dp4954
g7
L1334191389608509440L
sbag1
(g2
g3
Ntp4955
Rp4956
(dp4957
g7
L1336443189422194688L
sbag1
(g2
g3
Ntp4958
Rp4959
(dp4960
g7
L9803820717832142848L
sbag1
(g2
g3
Ntp4961
Rp4962
(dp4963
g7
L7715420495381790720L
sbag1
(g2
g3
Ntp4964
Rp4965
(dp4966
g7
L9260950870390996992L
sbag1
(g2
g3
Ntp4967
Rp4968
(dp4969
g7
L7715420770259697664L
sbag1
(g2
g3
Ntp4970
Rp4971
(dp4972
g7
L9814188012970442752L
sbag1
(g2
g3
Ntp4973
Rp4974
(dp4975
g7
L9936840734072111104L
sbag1
(g2
g3
Ntp4976
Rp4977
(dp4978
g7
L9936981471560466432L
sbag1
(g2
g3
Ntp4979
Rp4980
(dp4981
g7
L1497728351077400576L
sbag1
(g2
g3
Ntp4982
Rp4983
(dp4984
g7
L5171698076779282432L
sbag1
(g2
g3
Ntp4985
Rp4986
(dp4987
g7
L1498854250984243200L
sbag1
(g2
g3
Ntp4988
Rp4989
(dp4990
g7
L3591902177804681216L
sbag1
(g2
g3
Ntp4991
Rp4992
(dp4993
g7
L5183924646080151552L
sbag1
(g2
g3
Ntp4994
Rp4995
(dp4996
g7
L1382376387184164864L
sbag1
(g2
g3
Ntp4997
Rp4998
(dp4999
g7
L4827858800541171712L
sbag1
(g2
g3
Ntp5000
Rp5001
(dp5002
g7
L3593028077711523840L
sbag1
(g2
g3
Ntp5003
Rp5004
(dp5005
g7
L9926594591371296768L
sbag1
(g2
g3
Ntp5006
Rp5007
(dp5008
g7
L4679240012837945344L
sbag1
(g2
g3
Ntp5009
Rp5010
(dp5011
g7
L8935194437261197312L
sbag1
(g2
g3
Ntp5012
Rp5013
(dp5014
g7
L5494391545392005120L
sbag1
(g2
g3
Ntp5015
Rp5016
(dp5017
g7
L890586826312515584L
sbag1
(g2
g3
Ntp5018
Rp5019
(dp5020
g7
L6013149927469744128L
sbag1
(g2
g3
Ntp5021
Rp5022
(dp5023
g7
L6013712877423165440L
sbag1
(g2
g3
Ntp5024
Rp5025
(dp5026
g7
L9861071188778811392L
sbag1
(g2
g3
Ntp5027
Rp5028
(dp5029
g7
L6093487874856976384L
sbag1
(g2
g3
Ntp5030
Rp5031
(dp5032
g7
L6925691801965690880L
sbag1
(g2
g3
Ntp5033
Rp5034
(dp5035
g7
L6917599396385259520L
sbag1
(g2
g3
Ntp5036
Rp5037
(dp5038
g7
L5967269506265907200L
sbag1
(g2
g3
Ntp5039
Rp5040
(dp5041
g7
L9927886311375503360L
sbag1
(g2
g3
Ntp5042
Rp5043
(dp5044
g7
L5118974295204167680L
sbag1
(g2
g3
Ntp5045
Rp5046
(dp5047
g7
L5119115032692523008L
sbag1
(g2
g3
Ntp5048
Rp5049
(dp5050
g7
L3781897787084374016L
sbag1
(g2
g3
Ntp5051
Rp5052
(dp5053
g7
L5221391879186153472L
sbag1
(g2
g3
Ntp5054
Rp5055
(dp5056
g7
L360287970189639680L
sbag1
(g2
g3
Ntp5057
Rp5058
(dp5059
g7
L5221392978697781248L
sbag1
(g2
g3
Ntp5060
Rp5061
(dp5062
g7
L1498080194798288896L
sbag1
(g2
g3
Ntp5063
Rp5064
(dp5065
g7
L9855846309523619840L
sbag1
(g2
g3
Ntp5066
Rp5067
(dp5068
g7
L1498361669774999552L
sbag1
(g2
g3
Ntp5069
Rp5070
(dp5071
g7
L3587398578177310720L
sbag1
(g2
g3
Ntp5072
Rp5073
(dp5074
g7
L5171843212314148864L
sbag1
(g2
g3
Ntp5075
Rp5076
(dp5077
g7
L3587961528130732032L
sbag1
(g2
g3
Ntp5078
Rp5079
(dp5080
g7
L3589087428037574656L
sbag1
(g2
g3
Ntp5081
Rp5082
(dp5083
g7
L6094782068762345472L
sbag1
(g2
g3
Ntp5084
Rp5085
(dp5086
g7
L5217068324587831296L
sbag1
(g2
g3
Ntp5087
Rp5088
(dp5089
g7
L6094799660948389888L
sbag1
(g2
g3
Ntp5090
Rp5091
(dp5092
g7
L9261371158710714368L
sbag1
(g2
g3
Ntp5093
Rp5094
(dp5095
g7
L10759099509788114944L
sbag1
(g2
g3
Ntp5096
Rp5097
(dp5098
g7
L10768106709042855936L
sbag1
(g2
g3
Ntp5099
Rp5100
(dp5101
g7
L9804286086128599040L
sbag1
(g2
g3
Ntp5102
Rp5103
(dp5104
g7
L943846070050357248L
sbag1
(g2
g3
Ntp5105
Rp5106
(dp5107
g7
L939281997283459072L
sbag1
(g2
g3
Ntp5108
Rp5109
(dp5110
g7
L939844947236880384L
sbag1
(g2
g3
Ntp5111
Rp5112
(dp5113
g7
L3776760868759404544L
sbag1
(g2
g3
Ntp5114
Rp5115
(dp5116
g7
L3592394759013924864L
sbag1
(g2
g3
Ntp5117
Rp5118
(dp5119
g7
L963823096815419392L
sbag1
(g2
g3
Ntp5120
Rp5121
(dp5122
g7
L3742491290344882176L
sbag1
(g2
g3
Ntp5123
Rp5124
(dp5125
g7
L5226498835819266048L
sbag1
(g2
g3
Ntp5126
Rp5127
(dp5128
g7
L3592535496502280192L
sbag1
(g2
g3
Ntp5129
Rp5130
(dp5131
g7
L5163451739570962432L
sbag1
(g2
g3
Ntp5132
Rp5133
(dp5134
g7
L9673802368336003072L
sbag1
(g2
g3
Ntp5135
Rp5136
(dp5137
g7
L9260737840013115392L
sbag1
(g2
g3
Ntp5138
Rp5139
(dp5140
g7
L9674083843312713728L
sbag1
(g2
g3
Ntp5141
Rp5142
(dp5143
g7
L9854157459663355904L
sbag1
(g2
g3
Ntp5144
Rp5145
(dp5146
g7
L7998392938210000896L
sbag1
(g2
g3
Ntp5147
Rp5148
(dp5149
g7
L9855283359570198528L
sbag1
(g2
g3
Ntp5150
Rp5151
(dp5152
g7
L6092877714623037440L
sbag1
(g2
g3
Ntp5153
Rp5154
(dp5155
g7
L6093018452111392768L
sbag1
(g2
g3
Ntp5156
Rp5157
(dp5158
g7
L3592236429339525120L
sbag1
(g2
g3
Ntp5159
Rp5160
(dp5161
g7
L3592306798083702784L
sbag1
(g2
g3
Ntp5162
Rp5163
(dp5164
g7
L3592271613711613952L
sbag1
(g2
g3
Ntp5165
Rp5166
(dp5167
g7
L9678024492986662912L
sbag1
(g2
g3
Ntp5168
Rp5169
(dp5170
g7
L5134543379853475840L
sbag1
(g2
g3
Ntp5171
Rp5172
(dp5173
g7
L5134578564225564672L
sbag1
(g2
g3
Ntp5174
Rp5175
(dp5176
g7
L3152519739159347200L
sbag1
(g2
g3
Ntp5177
Rp5178
(dp5179
g7
L7698551719268974592L
sbag1
(g2
g3
Ntp5180
Rp5181
(dp5182
g7
L1386264260299980800L
sbag1
(g2
g3
Ntp5183
Rp5184
(dp5185
g7
L888335026498830336L
sbag1
(g2
g3
Ntp5186
Rp5187
(dp5188
g7
L5226304222261149696L
sbag1
(g2
g3
Ntp5189
Rp5190
(dp5191
g7
L6090203702344286208L
sbag1
(g2
g3
Ntp5192
Rp5193
(dp5194
g7
L9263755999431360512L
sbag1
(g2
g3
Ntp5195
Rp5196
(dp5197
g7
L1498168155728510976L
sbag1
(g2
g3
Ntp5198
Rp5199
(dp5200
g7
L7908320945662590976L
sbag1
(g2
g3
Ntp5201
Rp5202
(dp5203
g7
L9931790677165735936L
sbag1
(g2
g3
Ntp5204
Rp5205
(dp5206
g7
L5350276357316149248L
sbag1
(g2
g3
Ntp5207
Rp5208
(dp5209
g7
L5386305154335113216L
sbag1
(g2
g3
Ntp5210
Rp5211
(dp5212
g7
L10722560539373862912L
sbag1
(g2
g3
Ntp5213
Rp5214
(dp5215
g7
L1343375610235322368L
sbag1
(g2
g3
Ntp5216
Rp5217
(dp5218
g7
L947092927887179776L
sbag1
(g2
g3
Ntp5219
Rp5220
(dp5221
g7
L947233665375535104L
sbag1
(g2
g3
Ntp5222
Rp5223
(dp5224
g7
L5117215076599726080L
sbag1
(g2
g3
Ntp5225
Rp5226
(dp5227
g7
L9803822556078145536L
sbag1
(g2
g3
Ntp5228
Rp5229
(dp5230
g7
L3777675662433714176L
sbag1
(g2
g3
Ntp5231
Rp5232
(dp5233
g7
L10789569176017043456L
sbag1
(g2
g3
Ntp5234
Rp5235
(dp5236
g7
L6178938688752320512L
sbag1
(g2
g3
Ntp5237
Rp5238
(dp5239
g7
L10789850650993754112L
sbag1
(g2
g3
Ntp5240
Rp5241
(dp5242
g7
L10789991388482109440L
sbag1
(g2
g3
Ntp5243
Rp5244
(dp5245
g7
L5220098578633981952L
sbag1
(g2
g3
Ntp5246
Rp5247
(dp5248
g7
L5220116170820026368L
sbag1
(g2
g3
Ntp5249
Rp5250
(dp5251
g7
L9739667512886296576L
sbag1
(g2
g3
Ntp5252
Rp5253
(dp5254
g7
L9739808250374651904L
sbag1
(g2
g3
Ntp5255
Rp5256
(dp5257
g7
L9278211278801731584L
sbag1
(g2
g3
Ntp5258
Rp5259
(dp5260
g7
L9278220074894753792L
sbag1
(g2
g3
Ntp5261
Rp5262
(dp5263
g7
L9740089725351362560L
sbag1
(g2
g3
Ntp5264
Rp5265
(dp5266
g7
L3571354504504803328L
sbag1
(g2
g3
Ntp5267
Rp5268
(dp5269
g7
L4472074429978902528L
sbag1
(g2
g3
Ntp5270
Rp5271
(dp5272
g7
L3779645987270688768L
sbag1
(g2
g3
Ntp5273
Rp5274
(dp5275
g7
L9927864321142947840L
sbag1
(g2
g3
Ntp5276
Rp5277
(dp5278
g7
L3592210315938365440L
sbag1
(g2
g3
Ntp5279
Rp5280
(dp5281
g7
L3592210865694179328L
sbag1
(g2
g3
Ntp5282
Rp5283
(dp5284
g7
L9349472826421149696L
sbag1
(g2
g3
Ntp5285
Rp5286
(dp5287
g7
L10394307939971104768L
sbag1
(g2
g3
Ntp5288
Rp5289
(dp5290
g7
L10430336736990068736L
sbag1
(g2
g3
Ntp5291
Rp5292
(dp5293
g7
L7698692456757329920L
sbag1
(g2
g3
Ntp5294
Rp5295
(dp5296
g7
L5408823152471965696L
sbag1
(g2
g3
Ntp5297
Rp5298
(dp5299
g7
L5417830351726706688L
sbag1
(g2
g3
Ntp5300
Rp5301
(dp5302
g7
L37154696925806592L
sbag1
(g2
g3
Ntp5303
Rp5304
(dp5305
g7
L9854509303384244224L
sbag1
(g2
g3
Ntp5306
Rp5307
(dp5308
g7
L955375548979216384L
sbag1
(g2
g3
Ntp5309
Rp5310
(dp5311
g7
L6094214720762413056L
sbag1
(g2
g3
Ntp5312
Rp5313
(dp5314
g7
L869194728082505728L
sbag1
(g2
g3
Ntp5315
Rp5316
(dp5317
g7
L5213198043658059776L
sbag1
(g2
g3
Ntp5318
Rp5319
(dp5320
g7
L7715492994429747200L
sbag1
(g2
g3
Ntp5321
Rp5322
(dp5323
g7
L9284241000568455168L
sbag1
(g2
g3
Ntp5324
Rp5325
(dp5326
g7
L9284381738056810496L
sbag1
(g2
g3
Ntp5327
Rp5328
(dp5329
g7
L3748122714024443904L
sbag1
(g2
g3
Ntp5330
Rp5331
(dp5332
g7
L10789657136947265536L
sbag1
(g2
g3
Ntp5333
Rp5334
(dp5335
g7
L10789692321319354368L
sbag1
(g2
g3
Ntp5336
Rp5337
(dp5338
g7
L9802929013902016512L
sbag1
(g2
g3
Ntp5339
Rp5340
(dp5341
g7
L9864642402545827840L
sbag1
(g2
g3
Ntp5342
Rp5343
(dp5344
g7
L5119748351390121984L
sbag1
(g2
g3
Ntp5345
Rp5346
(dp5347
g7
L9864783140034183168L
sbag1
(g2
g3
Ntp5348
Rp5349
(dp5350
g7
L11817445422220181504L
sbag1
(g2
g3
Ntp5351
Rp5352
(dp5353
g7
L9865064615010893824L
sbag1
(g2
g3
Ntp5354
Rp5355
(dp5356
g7
L12970366926827028480L
sbag1
(g2
g3
Ntp5357
Rp5358
(dp5359
g7
L9260918159920070656L
sbag1
(g2
g3
Ntp5360
Rp5361
(dp5362
g7
L9260926956013092864L
sbag1
(g2
g3
Ntp5363
Rp5364
(dp5365
g7
L9260935752106115072L
sbag1
(g2
g3
Ntp5366
Rp5367
(dp5368
g7
L3765642607179333632L
sbag1
(g2
g3
Ntp5369
Rp5370
(dp5371
g7
L5119378915483189248L
sbag1
(g2
g3
Ntp5372
Rp5373
(dp5374
g7
L5119414099855278080L
sbag1
(g2
g3
Ntp5375
Rp5376
(dp5377
g7
L9281637357033881600L
sbag1
(g2
g3
Ntp5378
Rp5379
(dp5380
g7
L9313444029402185728L
sbag1
(g2
g3
Ntp5381
Rp5382
(dp5383
g7
L9830513561619660800L
sbag1
(g2
g3
Ntp5384
Rp5385
(dp5386
g7
L6093487118942732288L
sbag1
(g2
g3
Ntp5387
Rp5388
(dp5389
g7
L9831076511573082112L
sbag1
(g2
g3
Ntp5390
Rp5391
(dp5392
g7
L5180950742004924416L
sbag1
(g2
g3
Ntp5393
Rp5394
(dp5395
g7
L6093488218454360064L
sbag1
(g2
g3
Ntp5396
Rp5397
(dp5398
g7
L3080462145121419264L
sbag1
(g2
g3
Ntp5399
Rp5400
(dp5401
g7
L960111145560047616L
sbag1
(g2
g3
Ntp5402
Rp5403
(dp5404
g7
L9926747217329127424L
sbag1
(g2
g3
Ntp5405
Rp5406
(dp5407
g7
L9926756013422149632L
sbag1
(g2
g3
Ntp5408
Rp5409
(dp5410
g7
L957859345746362368L
sbag1
(g2
g3
Ntp5411
Rp5412
(dp5413
g7
L943825179329429504L
sbag1
(g2
g3
Ntp5414
Rp5415
(dp5416
g7
L958422295699783680L
sbag1
(g2
g3
Ntp5417
Rp5418
(dp5419
g7
L943833975422451712L
sbag1
(g2
g3
Ntp5420
Rp5421
(dp5422
g7
L943851567608496128L
sbag1
(g2
g3
Ntp5423
Rp5424
(dp5425
g7
L5134609350551142400L
sbag1
(g2
g3
Ntp5426
Rp5427
(dp5428
g7
L5134618146644164608L
sbag1
(g2
g3
Ntp5429
Rp5430
(dp5431
g7
L5958543781987876864L
sbag1
(g2
g3
Ntp5432
Rp5433
(dp5434
g7
L1503076375634903040L
sbag1
(g2
g3
Ntp5435
Rp5436
(dp5437
g7
L5959669681894719488L
sbag1
(g2
g3
Ntp5438
Rp5439
(dp5440
g7
L5960232631848140800L
sbag1
(g2
g3
Ntp5441
Rp5442
(dp5443
g7
L9928308523840569344L
sbag1
(g2
g3
Ntp5444
Rp5445
(dp5446
g7
L5216927587099475968L
sbag1
(g2
g3
Ntp5447
Rp5448
(dp5449
g7
L5085478772975599616L
sbag1
(g2
g3
Ntp5450
Rp5451
(dp5452
g7
L5154039920037199872L
sbag1
(g2
g3
Ntp5453
Rp5454
(dp5455
g7
L3859584880656515072L
sbag1
(g2
g3
Ntp5456
Rp5457
(dp5458
g7
L5246975040863338496L
sbag1
(g2
g3
Ntp5459
Rp5460
(dp5461
g7
L5247537990816759808L
sbag1
(g2
g3
Ntp5462
Rp5463
(dp5464
g7
L5226528522633216000L
sbag1
(g2
g3
Ntp5465
Rp5466
(dp5467
g7
L3871969779631783936L
sbag1
(g2
g3
Ntp5468
Rp5469
(dp5470
g7
L9675059110126551040L
sbag1
(g2
g3
Ntp5471
Rp5472
(dp5473
g7
L9665217381546328064L
sbag1
(g2
g3
Ntp5474
Rp5475
(dp5476
g7
L1349109563374174208L
sbag1
(g2
g3
Ntp5477
Rp5478
(dp5479
g7
L5069082855582203904L
sbag1
(g2
g3
Ntp5480
Rp5481
(dp5482
g7
L1350235463281016832L
sbag1
(g2
g3
Ntp5483
Rp5484
(dp5485
g7
L1382341202812076032L
sbag1
(g2
g3
Ntp5486
Rp5487
(dp5488
g7
L6089148171181621248L
sbag1
(g2
g3
Ntp5489
Rp5490
(dp5491
g7
L5172736015755902976L
sbag1
(g2
g3
Ntp5492
Rp5493
(dp5494
g7
L5146981055386877952L
sbag1
(g2
g3
Ntp5495
Rp5496
(dp5497
g7
L5221695069517512704L
sbag1
(g2
g3
Ntp5498
Rp5499
(dp5500
g7
L5180881197894467584L
sbag1
(g2
g3
Ntp5501
Rp5502
(dp5503
g7
L9827135861899132928L
sbag1
(g2
g3
Ntp5504
Rp5505
(dp5506
g7
L4557642822898941952L
sbag1
(g2
g3
Ntp5507
Rp5508
(dp5509
g7
L9827698811852554240L
sbag1
(g2
g3
Ntp5510
Rp5511
(dp5512
g7
L9263803278431354880L
sbag1
(g2
g3
Ntp5513
Rp5514
(dp5515
g7
L9263812074524377088L
sbag1
(g2
g3
Ntp5516
Rp5517
(dp5518
g7
L9263820870617399296L
sbag1
(g2
g3
Ntp5519
Rp5520
(dp5521
g7
L10722604794716880896L
sbag1
(g2
g3
Ntp5522
Rp5523
(dp5524
g7
L5180916382266556416L
sbag1
(g2
g3
Ntp5525
Rp5526
(dp5527
g7
L10722605894228508672L
sbag1
(g2
g3
Ntp5528
Rp5529
(dp5530
g7
L6008927802819084288L
sbag1
(g2
g3
Ntp5531
Rp5532
(dp5533
g7
L9936277784118689792L
sbag1
(g2
g3
Ntp5534
Rp5535
(dp5536
g7
L9936418521607045120L
sbag1
(g2
g3
Ntp5537
Rp5538
(dp5539
g7
L940196790957768704L
sbag1
(g2
g3
Ntp5540
Rp5541
(dp5542
g7
L1184446701998440448L
sbag1
(g2
g3
Ntp5543
Rp5544
(dp5545
g7
L940478265934479360L
sbag1
(g2
g3
Ntp5546
Rp5547
(dp5548
g7
L9680768874009591808L
sbag1
(g2
g3
Ntp5549
Rp5550
(dp5551
g7
L6015683202260140032L
sbag1
(g2
g3
Ntp5552
Rp5553
(dp5554
g7
L9675350480707911680L
sbag1
(g2
g3
Ntp5555
Rp5556
(dp5557
g7
L5158380791943659520L
sbag1
(g2
g3
Ntp5558
Rp5559
(dp5560
g7
L1343382207305089024L
sbag1
(g2
g3
Ntp5561
Rp5562
(dp5563
g7
L5158662266920370176L
sbag1
(g2
g3
Ntp5564
Rp5565
(dp5566
g7
L9814539856691331072L
sbag1
(g2
g3
Ntp5567
Rp5568
(dp5569
g7
L5158521529432014848L
sbag1
(g2
g3
Ntp5570
Rp5571
(dp5572
g7
L9814821331668041728L
sbag1
(g2
g3
Ntp5573
Rp5574
(dp5575
g7
L7864410849295728640L
sbag1
(g2
g3
Ntp5576
Rp5577
(dp5578
g7
L9811953805342801920L
sbag1
(g2
g3
Ntp5579
Rp5580
(dp5581
g7
L7866662649109413888L
sbag1
(g2
g3
Ntp5582
Rp5583
(dp5584
g7
L1354527956675854336L
sbag1
(g2
g3
Ntp5585
Rp5586
(dp5587
g7
L1354668694164209664L
sbag1
(g2
g3
Ntp5588
Rp5589
(dp5590
g7
L1354809431652564992L
sbag1
(g2
g3
Ntp5591
Rp5592
(dp5593
g7
L5155513265618419712L
sbag1
(g2
g3
Ntp5594
Rp5595
(dp5596
g7
L216172782113783808L
sbag1
(g2
g3
Ntp5597
Rp5598
(dp5599
g7
L5155583634362597376L
sbag1
(g2
g3
Ntp5600
Rp5601
(dp5602
g7
L5120874251296964608L
sbag1
(g2
g3
Ntp5603
Rp5604
(dp5605
g7
L5121437201250385920L
sbag1
(g2
g3
Ntp5606
Rp5607
(dp5608
g7
L1152921504606912512L
sbag1
(g2
g3
Ntp5609
Rp5610
(dp5611
g7
L5067201591187079168L
sbag1
(g2
g3
Ntp5612
Rp5613
(dp5614
g7
L5179069202731892736L
sbag1
(g2
g3
Ntp5615
Rp5616
(dp5617
g7
L5067205989233590272L
sbag1
(g2
g3
Ntp5618
Rp5619
(dp5620
g7
L955377748002471936L
sbag1
(g2
g3
Ntp5621
Rp5622
(dp5623
g7
L5226365451314921472L
sbag1
(g2
g3
Ntp5624
Rp5625
(dp5626
g7
L5226365588753874944L
sbag1
(g2
g3
Ntp5627
Rp5628
(dp5629
g7
L9284469698987032576L
sbag1
(g2
g3
Ntp5630
Rp5631
(dp5632
g7
L9284504883359121408L
sbag1
(g2
g3
Ntp5633
Rp5634
(dp5635
g7
L5067464374466117632L
sbag1
(g2
g3
Ntp5636
Rp5637
(dp5638
g7
L5062116349908615168L
sbag1
(g2
g3
Ntp5639
Rp5640
(dp5641
g7
L5062257087396970496L
sbag1
(g2
g3
Ntp5642
Rp5643
(dp5644
g7
L5255700765141368832L
sbag1
(g2
g3
Ntp5645
Rp5646
(dp5647
g7
L9804296806366969856L
sbag1
(g2
g3
Ntp5648
Rp5649
(dp5650
g7
L7711288461965131776L
sbag1
(g2
g3
Ntp5651
Rp5652
(dp5653
g7
L7698418678362013696L
sbag1
(g2
g3
Ntp5654
Rp5655
(dp5656
g7
L9664795169081262080L
sbag1
(g2
g3
Ntp5657
Rp5658
(dp5659
g7
L7698358205222486016L
sbag1
(g2
g3
Ntp5660
Rp5661
(dp5662
g7
L9665076644057972736L
sbag1
(g2
g3
Ntp5663
Rp5664
(dp5665
g7
L948289196538200064L
sbag1
(g2
g3
Ntp5666
Rp5667
(dp5668
g7
L5223665394354487296L
sbag1
(g2
g3
Ntp5669
Rp5670
(dp5671
g7
L5223700578726576128L
sbag1
(g2
g3
Ntp5672
Rp5673
(dp5674
g7
L9673890329266225152L
sbag1
(g2
g3
Ntp5675
Rp5676
(dp5677
g7
L5174354496871989248L
sbag1
(g2
g3
Ntp5678
Rp5679
(dp5680
g7
L9668102500057612288L
sbag1
(g2
g3
Ntp5681
Rp5682
(dp5683
g7
L5221365920403816448L
sbag1
(g2
g3
Ntp5684
Rp5685
(dp5686
g7
L9670354299871297536L
sbag1
(g2
g3
Ntp5687
Rp5688
(dp5689
g7
L5221365989123293184L
sbag1
(g2
g3
Ntp5690
Rp5691
(dp5692
g7
L5221366023483031552L
sbag1
(g2
g3
Ntp5693
Rp5694
(dp5695
g7
L3776479393782693888L
sbag1
(g2
g3
Ntp5696
Rp5697
(dp5698
g7
L948852146491621376L
sbag1
(g2
g3
Ntp5699
Rp5700
(dp5701
g7
L1478306577684365312L
sbag1
(g2
g3
Ntp5702
Rp5703
(dp5704
g7
L1480558377498050560L
sbag1
(g2
g3
Ntp5705
Rp5706
(dp5707
g7
L5221008974261780480L
sbag1
(g2
g3
Ntp5708
Rp5709
(dp5710
g7
L943839472980590592L
sbag1
(g2
g3
Ntp5711
Rp5712
(dp5713
g7
L5157465998269349888L
sbag1
(g2
g3
Ntp5714
Rp5715
(dp5716
g7
L5221149711750135808L
sbag1
(g2
g3
Ntp5717
Rp5718
(dp5719
g7
L3553340105995321344L
sbag1
(g2
g3
Ntp5720
Rp5721
(dp5722
g7
L5171201097523527680L
sbag1
(g2
g3
Ntp5723
Rp5724
(dp5725
g7
L5171209893616549888L
sbag1
(g2
g3
Ntp5726
Rp5727
(dp5728
g7
L5171218689709572096L
sbag1
(g2
g3
Ntp5729
Rp5730
(dp5731
g7
L883549951894749184L
sbag1
(g2
g3
Ntp5732
Rp5733
(dp5734
g7
L884112901848170496L
sbag1
(g2
g3
Ntp5735
Rp5736
(dp5737
g7
L884675851801591808L
sbag1
(g2
g3
Ntp5738
Rp5739
(dp5740
g7
L5225019992679907328L
sbag1
(g2
g3
Ntp5741
Rp5742
(dp5743
g7
L9643614177083785216L
sbag1
(g2
g3
Ntp5744
Rp5745
(dp5746
g7
L9644177127037206528L
sbag1
(g2
g3
Ntp5747
Rp5748
(dp5749
g7
L3188548536178311168L
sbag1
(g2
g3
Ntp5750
Rp5751
(dp5752
g7
L9803825115878653952L
sbag1
(g2
g3
Ntp5753
Rp5754
(dp5755
g7
L1498190145961066496L
sbag1
(g2
g3
Ntp5756
Rp5757
(dp5758
g7
L1498198942054088704L
sbag1
(g2
g3
Ntp5759
Rp5760
(dp5761
g7
L9920796660399603712L
sbag1
(g2
g3
Ntp5762
Rp5763
(dp5764
g7
L10719693013048623104L
sbag1
(g2
g3
Ntp5765
Rp5766
(dp5767
g7
L5532983029137408000L
sbag1
(g2
g3
Ntp5768
Rp5769
(dp5770
g7
L5532983578893221888L
sbag1
(g2
g3
Ntp5771
Rp5772
(dp5773
g7
L5526198217760309248L
sbag1
(g2
g3
Ntp5774
Rp5775
(dp5776
g7
L5163470431268634624L
sbag1
(g2
g3
Ntp5777
Rp5778
(dp5779
g7
L9277696707359932416L
sbag1
(g2
g3
Ntp5780
Rp5781
(dp5782
g7
L5527887067620573184L
sbag1
(g2
g3
Ntp5783
Rp5784
(dp5785
g7
L1382442357881831424L
sbag1
(g2
g3
Ntp5786
Rp5787
(dp5788
g7
L6094791964366995456L
sbag1
(g2
g3
Ntp5789
Rp5790
(dp5791
g7
L3592196846920925184L
sbag1
(g2
g3
Ntp5792
Rp5793
(dp5794
g7
L10724196612675993600L
sbag1
(g2
g3
Ntp5795
Rp5796
(dp5797
g7
L10290725148541583360L
sbag1
(g2
g3
Ntp5798
Rp5799
(dp5800
g7
L963845087047974912L
sbag1
(g2
g3
Ntp5801
Rp5802
(dp5803
g7
L10299732347796324352L
sbag1
(g2
g3
Ntp5804
Rp5805
(dp5806
g7
L963862679234019328L
sbag1
(g2
g3
Ntp5807
Rp5808
(dp5809
g7
L963871475327041536L
sbag1
(g2
g3
Ntp5810
Rp5811
(dp5812
g7
L9926514120864038912L
sbag1
(g2
g3
Ntp5813
Rp5814
(dp5815
g7
L1382430538131832832L
sbag1
(g2
g3
Ntp5816
Rp5817
(dp5818
g7
L6093388987529953280L
sbag1
(g2
g3
Ntp5819
Rp5820
(dp5821
g7
L1383449510532874240L
sbag1
(g2
g3
Ntp5822
Rp5823
(dp5824
g7
L6093391186553208832L
sbag1
(g2
g3
Ntp5825
Rp5826
(dp5827
g7
L1343377688999493632L
sbag1
(g2
g3
Ntp5828
Rp5829
(dp5830
g7
L5220124966913048576L
sbag1
(g2
g3
Ntp5831
Rp5832
(dp5833
g7
L1343377723359232000L
sbag1
(g2
g3
Ntp5834
Rp5835
(dp5836
g7
L9931784080095969280L
sbag1
(g2
g3
Ntp5837
Rp5838
(dp5839
g7
L6093395584599719936L
sbag1
(g2
g3
Ntp5840
Rp5841
(dp5842
g7
L39406496739491840L
sbag1
(g2
g3
Ntp5843
Rp5844
(dp5845
g7
L9931788478142480384L
sbag1
(g2
g3
Ntp5846
Rp5847
(dp5848
g7
L3588454109339975680L
sbag1
(g2
g3
Ntp5849
Rp5850
(dp5851
g7
L3588594846828331008L
sbag1
(g2
g3
Ntp5852
Rp5853
(dp5854
g7
L10236681953013137408L
sbag1
(g2
g3
Ntp5855
Rp5856
(dp5857
g7
L5163466308100030464L
sbag1
(g2
g3
Ntp5858
Rp5859
(dp5860
g7
L7716073536569212928L
sbag1
(g2
g3
Ntp5861
Rp5862
(dp5863
g7
L5119330536971567104L
sbag1
(g2
g3
Ntp5864
Rp5865
(dp5866
g7
L5119339333064589312L
sbag1
(g2
g3
Ntp5867
Rp5868
(dp5869
g7
L5119356925250633728L
sbag1
(g2
g3
Ntp5870
Rp5871
(dp5872
g7
L7715414929104175104L
sbag1
(g2
g3
Ntp5873
Rp5874
(dp5875
g7
L1487032301962395648L
sbag1
(g2
g3
Ntp5876
Rp5877
(dp5878
g7
L1487595251915816960L
sbag1
(g2
g3
Ntp5879
Rp5880
(dp5881
g7
L7715417128127430656L
sbag1
(g2
g3
Ntp5882
Rp5883
(dp5884
g7
L943996703143362560L
sbag1
(g2
g3
Ntp5885
Rp5886
(dp5887
g7
L5221242070726868992L
sbag1
(g2
g3
Ntp5888
Rp5889
(dp5890
g7
L5229805067283988480L
sbag1
(g2
g3
Ntp5891
Rp5892
(dp5893
g7
L5221250866819891200L
sbag1
(g2
g3
Ntp5894
Rp5895
(dp5896
g7
L5171610115849060352L
sbag1
(g2
g3
Ntp5897
Rp5898
(dp5899
g7
L9664883130011484160L
sbag1
(g2
g3
Ntp5900
Rp5901
(dp5902
g7
L9664988683127750656L
sbag1
(g2
g3
Ntp5903
Rp5904
(dp5905
g7
L9664953498755661824L
sbag1
(g2
g3
Ntp5906
Rp5907
(dp5908
g7
L10722582529606418432L
sbag1
(g2
g3
Ntp5909
Rp5910
(dp5911
g7
L9928238155096391680L
sbag1
(g2
g3
Ntp5912
Rp5913
(dp5914
g7
L9928273339468480512L
sbag1
(g2
g3
Ntp5915
Rp5916
(dp5917
g7
L10722591325699440640L
sbag1
(g2
g3
Ntp5918
Rp5919
(dp5920
g7
L1343387704863227904L
sbag1
(g2
g3
Ntp5921
Rp5922
(dp5923
g7
L5150640230084116480L
sbag1
(g2
g3
Ntp5924
Rp5925
(dp5926
g7
L5119344830622728192L
sbag1
(g2
g3
Ntp5927
Rp5928
(dp5929
g7
L5119347029645983744L
sbag1
(g2
g3
Ntp5930
Rp5931
(dp5932
g7
L9863727608871518208L
sbag1
(g2
g3
Ntp5933
Rp5934
(dp5935
g7
L6090681165268647936L
sbag1
(g2
g3
Ntp5936
Rp5937
(dp5938
g7
L1343396500956250112L
sbag1
(g2
g3
Ntp5939
Rp5940
(dp5941
g7
L6090682264780275712L
sbag1
(g2
g3
Ntp5942
Rp5943
(dp5944
g7
L7698412081292247040L
sbag1
(g2
g3
Ntp5945
Rp5946
(dp5947
g7
L1343377328222240768L
sbag1
(g2
g3
Ntp5948
Rp5949
(dp5950
g7
L7698416479338758144L
sbag1
(g2
g3
Ntp5951
Rp5952
(dp5953
g7
L9728901095027113984L
sbag1
(g2
g3
Ntp5954
Rp5955
(dp5956
g7
L9731152894840799232L
sbag1
(g2
g3
Ntp5957
Rp5958
(dp5959
g7
L10016005571271983104L
sbag1
(g2
g3
Ntp5960
Rp5961
(dp5962
g7
L9284526873591676928L
sbag1
(g2
g3
Ntp5963
Rp5964
(dp5965
g7
L9284535669684699136L
sbag1
(g2
g3
Ntp5966
Rp5967
(dp5968
g7
L3766979613318709248L
sbag1
(g2
g3
Ntp5969
Rp5970
(dp5971
g7
L7718043861406187520L
sbag1
(g2
g3
Ntp5972
Rp5973
(dp5974
g7
L3766416663365287936L
sbag1
(g2
g3
Ntp5975
Rp5976
(dp5977
g7
L9789418215019905024L
sbag1
(g2
g3
Ntp5978
Rp5979
(dp5980
g7
L9921148504120492032L
sbag1
(g2
g3
Ntp5981
Rp5982
(dp5983
g7
L5209538868960821248L
sbag1
(g2
g3
Ntp5984
Rp5985
(dp5986
g7
L9664922712430084096L
sbag1
(g2
g3
Ntp5987
Rp5988
(dp5989
g7
L9868795257963937792L
sbag1
(g2
g3
Ntp5990
Rp5991
(dp5992
g7
L947726246584778752L
sbag1
(g2
g3
Ntp5993
Rp5994
(dp5995
g7
L5211790668774506496L
sbag1
(g2
g3
Ntp5996
Rp5997
(dp5998
g7
L9868801855033704448L
sbag1
(g2
g3
Ntp5999
Rp6000
(dp6001
g7
L9920374447934537728L
sbag1
(g2
g3
Ntp6002
Rp6003
(dp6004
g7
L3766064819644399616L
sbag1
(g2
g3
Ntp6005
Rp6006
(dp6007
g7
L3865214380190728192L
sbag1
(g2
g3
Ntp6008
Rp6009
(dp6010
g7
L3765924082156044288L
sbag1
(g2
g3
Ntp6011
Rp6012
(dp6013
g7
L3867466180004413440L
sbag1
(g2
g3
Ntp6014
Rp6015
(dp6016
g7
L3765730568109555712L
sbag1
(g2
g3
Ntp6017
Rp6018
(dp6019
g7
L1387953110160244736L
sbag1
(g2
g3
Ntp6020
Rp6021
(dp6022
g7
L955371975566426112L
sbag1
(g2
g3
Ntp6023
Rp6024
(dp6025
g7
L5067202965576613888L
sbag1
(g2
g3
Ntp6026
Rp6027
(dp6028
g7
L3765800936853733376L
sbag1
(g2
g3
Ntp6029
Rp6030
(dp6031
g7
L5067203515332427776L
sbag1
(g2
g3
Ntp6032
Rp6033
(dp6034
g7
L5108207877344985088L
sbag1
(g2
g3
Ntp6035
Rp6036
(dp6037
g7
L5067204614844055552L
sbag1
(g2
g3
Ntp6038
Rp6039
(dp6040
g7
L3754876189320151040L
sbag1
(g2
g3
Ntp6041
Rp6042
(dp6043
g7
L5134623644202303488L
sbag1
(g2
g3
Ntp6044
Rp6045
(dp6046
g7
L943908742213140480L
sbag1
(g2
g3
Ntp6047
Rp6048
(dp6049
g7
L5134625843225559040L
sbag1
(g2
g3
Ntp6050
Rp6051
(dp6052
g7
L9926593354420715520L
sbag1
(g2
g3
Ntp6053
Rp6054
(dp6055
g7
L9926593491859668992L
sbag1
(g2
g3
Ntp6056
Rp6057
(dp6058
g7
L10784995207645495296L
sbag1
(g2
g3
Ntp6059
Rp6060
(dp6061
g7
L5062345048327192576L
sbag1
(g2
g3
Ntp6062
Rp6063
(dp6064
g7
L5062380232699281408L
sbag1
(g2
g3
Ntp6065
Rp6066
(dp6067
g7
L5062415417071370240L
sbag1
(g2
g3
Ntp6068
Rp6069
(dp6070
g7
L5160069641803923456L
sbag1
(g2
g3
Ntp6071
Rp6072
(dp6073
g7
L4017210867614482432L
sbag1
(g2
g3
Ntp6074
Rp6075
(dp6076
g7
L7715580955359969280L
sbag1
(g2
g3
Ntp6077
Rp6078
(dp6079
g7
L6093393454295941120L
sbag1
(g2
g3
Ntp6080
Rp6081
(dp6082
g7
L3765770150528155648L
sbag1
(g2
g3
Ntp6083
Rp6084
(dp6085
g7
L6093393591734894592L
sbag1
(g2
g3
Ntp6086
Rp6087
(dp6088
g7
L6093393866612801536L
sbag1
(g2
g3
Ntp6089
Rp6090
(dp6091
g7
L3909124476557590528L
sbag1
(g2
g3
Ntp6092
Rp6093
(dp6094
g7
L3748243935181406208L
sbag1
(g2
g3
Ntp6095
Rp6096
(dp6097
g7
L3945153273576554496L
sbag1
(g2
g3
Ntp6098
Rp6099
(dp6100
g7
L3525192608324255744L
sbag1
(g2
g3
Ntp6101
Rp6102
(dp6103
g7
L3527444408137940992L
sbag1
(g2
g3
Ntp6104
Rp6105
(dp6106
g7
L3529696207951626240L
sbag1
(g2
g3
Ntp6107
Rp6108
(dp6109
g7
L9923600689928339456L
sbag1
(g2
g3
Ntp6110
Rp6111
(dp6112
g7
L4491214728395227136L
sbag1
(g2
g3
Ntp6113
Rp6114
(dp6115
g7
L9794203289623986176L
sbag1
(g2
g3
Ntp6116
Rp6117
(dp6118
g7
L9263776890152288256L
sbag1
(g2
g3
Ntp6119
Rp6120
(dp6121
g7
L9263785686245310464L
sbag1
(g2
g3
Ntp6122
Rp6123
(dp6124
g7
L9263794482338332672L
sbag1
(g2
g3
Ntp6125
Rp6126
(dp6127
g7
L5166103761617158144L
sbag1
(g2
g3
Ntp6128
Rp6129
(dp6130
g7
L3777112712480292864L
sbag1
(g2
g3
Ntp6131
Rp6132
(dp6133
g7
L5166138945989246976L
sbag1
(g2
g3
Ntp6134
Rp6135
(dp6136
g7
L6924455950896070656L
sbag1
(g2
g3
Ntp6137
Rp6138
(dp6139
g7
L5188991195660943360L
sbag1
(g2
g3
Ntp6140
Rp6141
(dp6142
g7
L5190117095567785984L
sbag1
(g2
g3
Ntp6143
Rp6144
(dp6145
g7
L5146822725712478208L
sbag1
(g2
g3
Ntp6146
Rp6147
(dp6148
g7
L5146857910084567040L
sbag1
(g2
g3
Ntp6149
Rp6150
(dp6151
g7
L5146893094456655872L
sba.