(lp0
ccopy_reg
_reconstructor
p1
(cs2sphere.sphere
CellId
p2
c__builtin__
object
p3
Ntp4
Rp5
(dp6
S'_CellId__id'
p7
L9926566897422172160L
sbag1
(g2
g3
Ntp8
Rp9
(dp10
g7
L7782220156096217088L
sbag1
(g2
g3
Ntp11
Rp12
(dp13
g7
L9281918832010592256L
sbag1
(g2
g3
Ntp14
Rp15
(dp16
g7
L9813343588040310784L
sbag1
(g2
g3
Ntp17
Rp18
(dp19
g7
L5223049667842932736L
sbag1
(g2
g3
Ntp20
Rp21
(dp22
g7
L5171258272128172032L
sbag1
(g2
g3
Ntp23
Rp24
(dp25
g7
L5221431186726846464L
sbag1
(g2
g3
Ntp26
Rp27
(dp28
g7
L6094496195739123712L
sbag1
(g2
g3
Ntp29
Rp30
(dp31
g7
L5242189966259257344L
sbag1
(g2
g3
Ntp32
Rp33
(dp34
g7
L10664523917613334528L
sbag1
(g2
g3
Ntp35
Rp36
(dp37
g7
L3819052484010180608L
sbag1
(g2
g3
Ntp38
Rp39
(dp40
g7
L5183643171103440896L
sbag1
(g2
g3
Ntp41
Rp42
(dp43
g7
L9853875984686645248L
sbag1
(g2
g3
Ntp44
Rp45
(dp46
g7
L1382605085602742272L
sbag1
(g2
g3
Ntp47
Rp48
(dp49
g7
L5165628772593958912L
sbag1
(g2
g3
Ntp50
Rp51
(dp52
g7
L5098074778183401472L
sbag1
(g2
g3
Ntp53
Rp54
(dp55
g7
L9931563078258786304L
sbag1
(g2
g3
Ntp56
Rp57
(dp58
g7
L9804336388785569792L
sbag1
(g2
g3
Ntp59
Rp60
(dp61
g7
L950259521375174656L
sbag1
(g2
g3
Ntp62
Rp63
(dp64
g7
L959266720629915648L
sbag1
(g2
g3
Ntp65
Rp66
(dp67
g7
L9673731999591825408L
sbag1
(g2
g3
Ntp68
Rp69
(dp70
g7
L3530822107858468864L
sbag1
(g2
g3
Ntp71
Rp72
(dp73
g7
L5153243873618690048L
sbag1
(g2
g3
Ntp74
Rp75
(dp76
g7
L5159999273059745792L
sbag1
(g2
g3
Ntp77
Rp78
(dp79
g7
L9260526733780582400L
sbag1
(g2
g3
Ntp80
Rp81
(dp82
g7
L1346576288583778304L
sbag1
(g2
g3
Ntp83
Rp84
(dp85
g7
L1373597886348001280L
sbag1
(g2
g3
Ntp86
Rp87
(dp88
g7
L5548434740920451072L
sbag1
(g2
g3
Ntp89
Rp90
(dp91
g7
L9781818390648717312L
sbag1
(g2
g3
Ntp92
Rp93
(dp94
g7
L5147614374084476928L
sbag1
(g2
g3
Ntp95
Rp96
(dp97
g7
L4323455642275676160L
sbag1
(g2
g3
Ntp98
Rp99
(dp100
g7
L882705526964617216L
sbag1
(g2
g3
Ntp101
Rp102
(dp103
g7
L5210664768867663872L
sbag1
(g2
g3
Ntp104
Rp105
(dp106
g7
L9583660007044415488L
sbag1
(g2
g3
Ntp107
Rp108
(dp109
g7
L9831357986549792768L
sbag1
(g2
g3
Ntp110
Rp111
(dp112
g7
L9939444377606684672L
sbag1
(g2
g3
Ntp113
Rp114
(dp115
g7
L5219953443099115520L
sbag1
(g2
g3
Ntp116
Rp117
(dp118
g7
L5192650370358181888L
sbag1
(g2
g3
Ntp119
Rp120
(dp121
g7
L941252322120433664L
sbag1
(g2
g3
Ntp122
Rp123
(dp124
g7
L968273919884656640L
sbag1
(g2
g3
Ntp125
Rp126
(dp127
g7
L5980780305148018688L
sbag1
(g2
g3
Ntp128
Rp129
(dp130
g7
L10304235947423694848L
sbag1
(g2
g3
Ntp131
Rp132
(dp133
g7
L9745789593629753344L
sbag1
(g2
g3
Ntp134
Rp135
(dp136
g7
L1224979098644774912L
sbag1
(g2
g3
Ntp137
Rp138
(dp139
g7
L1513209474796486656L
sbag1
(g2
g3
Ntp140
Rp141
(dp142
g7
L3963167672086036480L
sbag1
(g2
g3
Ntp143
Rp144
(dp145
g7
L5155495673432375296L
sbag1
(g2
g3
Ntp146
Rp147
(dp148
g7
L288230376151711744L
sbag1
(g2
g3
Ntp149
Rp150
(dp151
g7
L9927903903561547776L
sbag1
(g2
g3
Ntp152
Rp153
(dp154
g7
L4683743612465315840L
sbag1
(g2
g3
Ntp155
Rp156
(dp157
g7
L9921429979097202688L
sbag1
(g2
g3
Ntp158
Rp159
(dp160
g7
L9265030333407952896L
sbag1
(g2
g3
Ntp161
Rp162
(dp163
g7
L1355583487838519296L
sbag1
(g2
g3
Ntp164
Rp165
(dp166
g7
L1364590687093260288L
sbag1
(g2
g3
Ntp167
Rp168
(dp169
g7
L10160120759347838976L
sbag1
(g2
g3
Ntp170
Rp171
(dp172
g7
L1391612284857483264L
sbag1
(g2
g3
Ntp173
Rp174
(dp175
g7
L6102377495087022080L
sbag1
(g2
g3
Ntp176
Rp177
(dp178
g7
L5120592776320253952L
sbag1
(g2
g3
Ntp179
Rp180
(dp181
g7
L5138607174829735936L
sbag1
(g2
g3
Ntp182
Rp183
(dp184
g7
L5062045981164437504L
sbag1
(g2
g3
Ntp185
Rp186
(dp187
g7
L3170534137668829184L
sbag1
(g2
g3
Ntp188
Rp189
(dp190
g7
L5221571924215201792L
sbag1
(g2
g3
Ntp191
Rp192
(dp193
g7
L6089992596111753216L
sbag1
(g2
g3
Ntp194
Rp195
(dp196
g7
L6096747995552808960L
sbag1
(g2
g3
Ntp197
Rp198
(dp199
g7
L1080863910568919040L
sbag1
(g2
g3
Ntp200
Rp201
(dp202
g7
L990791918021509120L
sbag1
(g2
g3
Ntp203
Rp204
(dp205
g7
L918734323983581184L
sbag1
(g2
g3
Ntp206
Rp207
(dp208
g7
L9439544818968559616L
sbag1
(g2
g3
Ntp209
Rp210
(dp211
g7
L9933814878072471552L
sbag1
(g2
g3
Ntp212
Rp213
(dp214
g7
L5692549928996306944L
sbag1
(g2
g3
Ntp215
Rp216
(dp217
g7
L9929311278445101056L
sbag1
(g2
g3
Ntp218
Rp219
(dp220
g7
L2017612633061982208L
sbag1
(g2
g3
Ntp221
Rp222
(dp223
g7
L1423137482249076736L
sbag1
(g2
g3
Ntp224
Rp225
(dp226
g7
L5314247560297185280L
sbag1
(g2
g3
Ntp227
Rp228
(dp229
g7
L9822350787295051776L
sbag1
(g2
g3
Ntp230
Rp231
(dp232
g7
L5278218763278221312L
sbag1
(g2
g3
Ntp233
Rp234
(dp235
g7
L5220516393052536832L
sbag1
(g2
g3
Ntp236
Rp237
(dp238
g7
L5221079343005958144L
sbag1
(g2
g3
Ntp239
Rp240
(dp241
g7
L9290926031265333248L
sbag1
(g2
g3
Ntp242
Rp243
(dp244
g7
L5201657569612922880L
sbag1
(g2
g3
Ntp245
Rp246
(dp247
g7
L5836665117072162816L
sbag1
(g2
g3
Ntp248
Rp249
(dp250
g7
L12682136550675316736L
sbag1
(g2
g3
Ntp251
Rp252
(dp253
g7
L2594073385365405696L
sbag1
(g2
g3
Ntp254
Rp255
(dp256
g7
L5216294268401876992L
sbag1
(g2
g3
Ntp257
Rp258
(dp259
g7
L9709760796610789376L
sbag1
(g2
g3
Ntp260
Rp261
(dp262
g7
L5218546068215562240L
sbag1
(g2
g3
Ntp263
Rp264
(dp265
g7
L7205759403792793600L
sbag1
(g2
g3
Ntp266
Rp267
(dp268
g7
L11240984669916758016L
sbag1
(g2
g3
Ntp269
Rp270
(dp271
g7
L8358680908399640576L
sbag1
(g2
g3
Ntp272
Rp273
(dp274
g7
L8935141660703064064L
sbag1
(g2
g3
Ntp275
Rp276
(dp277
g7
L3674937295934324736L
sbag1
(g2
g3
Ntp278
Rp279
(dp280
g7
L9889904781705609216L
sbag1
(g2
g3
Ntp281
Rp282
(dp283
g7
L9912422779842461696L
sbag1
(g2
g3
Ntp284
Rp285
(dp286
g7
L1657324662872342528L
sbag1
(g2
g3
Ntp287
Rp288
(dp289
g7
L5157747473246060544L
sbag1
(g2
g3
Ntp290
Rp291
(dp292
g7
L9926215053701283840L
sbag1
(g2
g3
Ntp293
Rp294
(dp295
g7
L9241386435364257792L
sbag1
(g2
g3
Ntp296
Rp297
(dp298
g7
L9927340953608126464L
sbag1
(g2
g3
Ntp299
Rp300
(dp301
g7
L1315051091192184832L
sbag1
(g2
g3
Ntp302
Rp303
(dp304
g7
L5173510071941857280L
sbag1
(g2
g3
Ntp305
Rp306
(dp307
g7
L5175761871755542528L
sbag1
(g2
g3
Ntp308
Rp309
(dp310
g7
L5178013671569227776L
sbag1
(g2
g3
Ntp311
Rp312
(dp313
g7
L9262778533594267648L
sbag1
(g2
g3
Ntp314
Rp315
(dp316
g7
L4827858800541171712L
sbag1
(g2
g3
Ntp317
Rp318
(dp319
g7
L1337569089329037312L
sbag1
(g2
g3
Ntp320
Rp321
(dp322
g7
L6629298651489370112L
sbag1
(g2
g3
Ntp323
Rp324
(dp325
g7
L9267282133221638144L
sbag1
(g2
g3
Ntp326
Rp327
(dp328
g7
L6070852297695428608L
sbag1
(g2
g3
Ntp329
Rp330
(dp331
g7
L6178938688752320512L
sbag1
(g2
g3
Ntp332
Rp333
(dp334
g7
L9349472826421149696L
sbag1
(g2
g3
Ntp335
Rp336
(dp337
g7
L6142909891733356544L
sbag1
(g2
g3
Ntp338
Rp339
(dp340
g7
L9313444029402185728L
sbag1
(g2
g3
Ntp341
Rp342
(dp343
g7
L4971973988617027584L
sbag1
(g2
g3
Ntp344
Rp345
(dp346
g7
L1400619484112224256L
sbag1
(g2
g3
Ntp347
Rp348
(dp349
g7
L6120391893596504064L
sbag1
(g2
g3
Ntp350
Rp351
(dp352
g7
L9272911632755851264L
sbag1
(g2
g3
Ntp353
Rp354
(dp355
g7
L6111384694341763072L
sbag1
(g2
g3
Ntp356
Rp357
(dp358
g7
L5129599975574994944L
sbag1
(g2
g3
Ntp359
Rp360
(dp361
g7
L5404319552844595200L
sbag1
(g2
g3
Ntp362
Rp363
(dp364
g7
L9926989109887238144L
sbag1
(g2
g3
Ntp365
Rp366
(dp367
g7
L9926707634910527488L
sbag1
(g2
g3
Ntp368
Rp369
(dp370
g7
L9926848372398882816L
sbag1
(g2
g3
Ntp371
Rp372
(dp373
g7
L648518346341351424L
sbag1
(g2
g3
Ntp374
Rp375
(dp376
g7
L10016005571271983104L
sbag1
(g2
g3
Ntp377
Rp378
(dp379
g7
L5221712661703557120L
sbag1
(g2
g3
Ntp380
Rp381
(dp382
g7
L5221853399191912448L
sbag1
(g2
g3
Ntp383
Rp384
(dp385
g7
L6092244395925438464L
sbag1
(g2
g3
Ntp386
Rp387
(dp388
g7
L792633534417207296L
sbag1
(g2
g3
Ntp389
Rp390
(dp391
g7
L6269010681299730432L
sba.