(lp0
ccopy_reg
_reconstructor
p1
(cs2sphere.sphere
CellId
p2
c__builtin__
object
p3
Ntp4
Rp5
(dp6
S'_CellId__id'
p7
L9511602413006487552L
sbag1
(g2
g3
Ntp8
Rp9
(dp10
g7
L3458764513820540928L
sbag1
(g2
g3
Ntp11
Rp12
(dp13
g7
L5260204364768739328L
sbag1
(g2
g3
Ntp14
Rp15
(dp16
g7
L8070450532247928832L
sbag1
(g2
g3
Ntp17
Rp18
(dp19
g7
L9817847187667681280L
sbag1
(g2
g3
Ntp20
Rp21
(dp22
g7
L1441151880758558720L
sbag1
(g2
g3
Ntp23
Rp24
(dp25
g7
L6052837899185946624L
sbag1
(g2
g3
Ntp26
Rp27
(dp28
g7
L5174635971848699904L
sbag1
(g2
g3
Ntp29
Rp30
(dp31
g7
L2017612633061982208L
sbag1
(g2
g3
Ntp32
Rp33
(dp34
g7
L10664523917613334528L
sbag1
(g2
g3
Ntp35
Rp36
(dp37
g7
L9853875984686645248L
sbag1
(g2
g3
Ntp38
Rp39
(dp40
g7
L288230376151711744L
sbag1
(g2
g3
Ntp41
Rp42
(dp43
g7
L9925933578724573184L
sbag1
(g2
g3
Ntp44
Rp45
(dp46
g7
L5548434740920451072L
sbag1
(g2
g3
Ntp47
Rp48
(dp49
g7
L5156621573339217920L
sbag1
(g2
g3
Ntp50
Rp51
(dp52
g7
L5134103575202365440L
sbag1
(g2
g3
Ntp53
Rp54
(dp55
g7
L5692549928996306944L
sbag1
(g2
g3
Ntp56
Rp57
(dp58
g7
L10160120759347838976L
sbag1
(g2
g3
Ntp59
Rp60
(dp61
g7
L10016005571271983104L
sbag1
(g2
g3
Ntp62
Rp63
(dp64
g7
L12682136550675316736L
sbag1
(g2
g3
Ntp65
Rp66
(dp67
g7
L10304235947423694848L
sbag1
(g2
g3
Ntp68
Rp69
(dp70
g7
L11240984669916758016L
sbag1
(g2
g3
Ntp71
Rp72
(dp73
g7
L9889904781705609216L
sbag1
(g2
g3
Ntp74
Rp75
(dp76
g7
L6629298651489370112L
sbag1
(g2
g3
Ntp77
Rp78
(dp79
g7
L4683743612465315840L
sbag1
(g2
g3
Ntp80
Rp81
(dp82
g7
L4827858800541171712L
sbag1
(g2
g3
Ntp83
Rp84
(dp85
g7
L864691128455135232L
sbag1
(g2
g3
Ntp86
Rp87
(dp88
g7
L4971973988617027584L
sbag1
(g2
g3
Ntp89
Rp90
(dp91
g7
L5404319552844595200L
sbag1
(g2
g3
Ntp92
Rp93
(dp94
g7
L5062045981164437504L
sbag1
(g2
g3
Ntp95
Rp96
(dp97
g7
L5165628772593958912L
sbag1
(g2
g3
Ntp98
Rp99
(dp100
g7
L5098074778183401472L
sbag1
(g2
g3
Ntp101
Rp102
(dp103
g7
L5183643171103440896L
sba.