(lp0
ccopy_reg
_reconstructor
p1
(cs2sphere.sphere
CellId
p2
c__builtin__
object
p3
Ntp4
Rp5
(dp6
S'_CellId__id'
p7
L9804283612227436544L
sbag1
(g2
g3
Ntp8
Rp9
(dp10
g7
L5180952666150273024L
sbag1
(g2
g3
Ntp11
Rp12
(dp13
g7
L9267282133221638144L
sbag1
(g2
g3
Ntp14
Rp15
(dp16
g7
L9860912859104411648L
sbag1
(g2
g3
Ntp17
Rp18
(dp19
g7
L5171187903383994368L
sbag1
(g2
g3
Ntp20
Rp21
(dp22
g7
L3674937295934324736L
sbag1
(g2
g3
Ntp23
Rp24
(dp25
g7
L43910096366862336L
sbag1
(g2
g3
Ntp26
Rp27
(dp28
g7
L9675139374475378688L
sbag1
(g2
g3
Ntp29
Rp30
(dp31
g7
L5220516393052536832L
sbag1
(g2
g3
Ntp32
Rp33
(dp34
g7
L5226497736307638272L
sbag1
(g2
g3
Ntp35
Rp36
(dp37
g7
L5135229475109208064L
sbag1
(g2
g3
Ntp38
Rp39
(dp40
g7
L9263762596501127168L
sbag1
(g2
g3
Ntp41
Rp42
(dp43
g7
L10160120759347838976L
sbag1
(g2
g3
Ntp44
Rp45
(dp46
g7
L5533023985945542656L
sbag1
(g2
g3
Ntp47
Rp48
(dp49
g7
L949978046398464000L
sbag1
(g2
g3
Ntp50
Rp51
(dp52
g7
L9926595003688157184L
sbag1
(g2
g3
Ntp53
Rp54
(dp55
g7
L9931844553235496960L
sbag1
(g2
g3
Ntp56
Rp57
(dp58
g7
L4125297258671374336L
sbag1
(g2
g3
Ntp59
Rp60
(dp61
g7
L7764205757586735104L
sbag1
(g2
g3
Ntp62
Rp63
(dp64
g7
L5222838561610399744L
sbag1
(g2
g3
Ntp65
Rp66
(dp67
g7
L3748402264855805952L
sbag1
(g2
g3
Ntp68
Rp69
(dp70
g7
L9007199254740992000L
sbag1
(g2
g3
Ntp71
Rp72
(dp73
g7
L9926594316493389824L
sbag1
(g2
g3
Ntp74
Rp75
(dp76
g7
L1499698675914375168L
sbag1
(g2
g3
Ntp77
Rp78
(dp79
g7
L9642206802200231936L
sbag1
(g2
g3
Ntp80
Rp81
(dp82
g7
L1385701310346559488L
sbag1
(g2
g3
Ntp83
Rp84
(dp85
g7
L9278193686615687168L
sbag1
(g2
g3
Ntp86
Rp87
(dp88
g7
L5220868236773425152L
sbag1
(g2
g3
Ntp89
Rp90
(dp91
g7
L9868794158452310016L
sbag1
(g2
g3
Ntp92
Rp93
(dp94
g7
L5163466033222123520L
sbag1
(g2
g3
Ntp95
Rp96
(dp97
g7
L3765761354435133440L
sbag1
(g2
g3
Ntp98
Rp99
(dp100
g7
L5063171881071280128L
sbag1
(g2
g3
Ntp101
Rp102
(dp103
g7
L5177098877894918144L
sbag1
(g2
g3
Ntp104
Rp105
(dp106
g7
L9933814878072471552L
sbag1
(g2
g3
Ntp107
Rp108
(dp109
g7
L5170413847198040064L
sbag1
(g2
g3
Ntp110
Rp111
(dp112
g7
L1382429438620205056L
sbag1
(g2
g3
Ntp113
Rp114
(dp115
g7
L9740160094095540224L
sbag1
(g2
g3
Ntp116
Rp117
(dp118
g7
L5162251072873431040L
sbag1
(g2
g3
Ntp119
Rp120
(dp121
g7
L1356990862722072576L
sbag1
(g2
g3
Ntp122
Rp123
(dp124
g7
L5156340098362507264L
sbag1
(g2
g3
Ntp125
Rp126
(dp127
g7
L5085689879208132608L
sbag1
(g2
g3
Ntp128
Rp129
(dp130
g7
L9709760796610789376L
sbag1
(g2
g3
Ntp131
Rp132
(dp133
g7
L969399819791499264L
sbag1
(g2
g3
Ntp134
Rp135
(dp136
g7
L942378222027276288L
sbag1
(g2
g3
Ntp137
Rp138
(dp139
g7
L5165910247570669568L
sbag1
(g2
g3
Ntp140
Rp141
(dp142
g7
L5221366590418714624L
sbag1
(g2
g3
Ntp143
Rp144
(dp145
g7
L9926594660090773504L
sbag1
(g2
g3
Ntp146
Rp147
(dp148
g7
L5222961706912710656L
sbag1
(g2
g3
Ntp149
Rp150
(dp151
g7
L5168162047384354816L
sbag1
(g2
g3
Ntp152
Rp153
(dp154
g7
L9923602339195781120L
sbag1
(g2
g3
Ntp155
Rp156
(dp157
g7
L9803822916855398400L
sbag1
(g2
g3
Ntp158
Rp159
(dp160
g7
L5958262307011166208L
sbag1
(g2
g3
Ntp161
Rp162
(dp163
g7
L5146769949154344960L
sbag1
(g2
g3
Ntp164
Rp165
(dp166
g7
L5226374591005327360L
sbag1
(g2
g3
Ntp167
Rp168
(dp169
g7
L4665729213955833856L
sbag1
(g2
g3
Ntp170
Rp171
(dp172
g7
L5219390493145694208L
sbag1
(g2
g3
Ntp173
Rp174
(dp175
g7
L5070771705442467840L
sbag1
(g2
g3
Ntp176
Rp177
(dp178
g7
L9279948507173617664L
sbag1
(g2
g3
Ntp179
Rp180
(dp181
g7
L5171831117686243328L
sbag1
(g2
g3
Ntp182
Rp183
(dp184
g7
L1531223873305968640L
sbag1
(g2
g3
Ntp185
Rp186
(dp187
g7
L5217156285518053376L
sbag1
(g2
g3
Ntp188
Rp189
(dp190
g7
L5153525348595400704L
sbag1
(g2
g3
Ntp191
Rp192
(dp193
g7
L6092244395925438464L
sbag1
(g2
g3
Ntp194
Rp195
(dp196
g7
L9926595141127110656L
sbag1
(g2
g3
Ntp197
Rp198
(dp199
g7
L5158591898176192512L
sbag1
(g2
g3
Ntp200
Rp201
(dp202
g7
L5173510071941857280L
sbag1
(g2
g3
Ntp203
Rp204
(dp205
g7
L5221364116517552128L
sbag1
(g2
g3
Ntp206
Rp207
(dp208
g7
L5169850897244618752L
sbag1
(g2
g3
Ntp209
Rp210
(dp211
g7
L9674013474568536064L
sbag1
(g2
g3
Ntp212
Rp213
(dp214
g7
L6003298303284871168L
sbag1
(g2
g3
Ntp215
Rp216
(dp217
g7
L5223331142819643392L
sbag1
(g2
g3
Ntp218
Rp219
(dp220
g7
L1383730985509584896L
sbag1
(g2
g3
Ntp221
Rp222
(dp223
g7
L9285507637963653120L
sbag1
(g2
g3
Ntp224
Rp225
(dp226
g7
L1337569089329037312L
sbag1
(g2
g3
Ntp227
Rp228
(dp229
g7
L5184769071010283520L
sbag1
(g2
g3
Ntp230
Rp231
(dp232
g7
L5163460535663984640L
sbag1
(g2
g3
Ntp233
Rp234
(dp235
g7
L9830232086642950144L
sbag1
(g2
g3
Ntp236
Rp237
(dp238
g7
L10448351135499550720L
sbag1
(g2
g3
Ntp239
Rp240
(dp241
g7
L9290926031265333248L
sbag1
(g2
g3
Ntp242
Rp243
(dp244
g7
L9840365185804533760L
sbag1
(g2
g3
Ntp245
Rp246
(dp247
g7
L9809965888319782912L
sbag1
(g2
g3
Ntp248
Rp249
(dp250
g7
L964051795233996800L
sbag1
(g2
g3
Ntp251
Rp252
(dp253
g7
L9260956642827042816L
sbag1
(g2
g3
Ntp254
Rp255
(dp256
g7
L946881821654646784L
sbag1
(g2
g3
Ntp257
Rp258
(dp259
g7
L5178858096499359744L
sbag1
(g2
g3
Ntp260
Rp261
(dp262
g7
L943785596910829568L
sbag1
(g2
g3
Ntp263
Rp264
(dp265
g7
L7867788549016256512L
sbag1
(g2
g3
Ntp266
Rp267
(dp268
g7
L1224979098644774912L
sbag1
(g2
g3
Ntp269
Rp270
(dp271
g7
L1345450388676935680L
sbag1
(g2
g3
Ntp272
Rp273
(dp274
g7
L5222416349145333760L
sbag1
(g2
g3
Ntp275
Rp276
(dp277
g7
L5148740273991319552L
sbag1
(g2
g3
Ntp278
Rp279
(dp280
g7
L5527042642690441216L
sbag1
(g2
g3
Ntp281
Rp282
(dp283
g7
L3963167672086036480L
sbag1
(g2
g3
Ntp284
Rp285
(dp286
g7
L1354739062908387328L
sbag1
(g2
g3
Ntp287
Rp288
(dp289
g7
L6034823500676464640L
sbag1
(g2
g3
Ntp290
Rp291
(dp292
g7
L1481684277404893184L
sbag1
(g2
g3
Ntp293
Rp294
(dp295
g7
L5246693565886627840L
sbag1
(g2
g3
Ntp296
Rp297
(dp298
g7
L4300937644138823680L
sbag1
(g2
g3
Ntp299
Rp300
(dp301
g7
L9935912746258268160L
sbag1
(g2
g3
Ntp302
Rp303
(dp304
g7
L9800958689065041920L
sbag1
(g2
g3
Ntp305
Rp306
(dp307
g7
L6093493441134592000L
sbag1
(g2
g3
Ntp308
Rp309
(dp310
g7
L5220164549331648512L
sbag1
(g2
g3
Ntp311
Rp312
(dp313
g7
L9814750962923864064L
sbag1
(g2
g3
Ntp314
Rp315
(dp316
g7
L9265030333407952896L
sbag1
(g2
g3
Ntp317
Rp318
(dp319
g7
L9818973087574523904L
sbag1
(g2
g3
Ntp320
Rp321
(dp322
g7
L10322250345933176832L
sbag1
(g2
g3
Ntp323
Rp324
(dp325
g7
L5216575743378587648L
sbag1
(g2
g3
Ntp326
Rp327
(dp328
g7
L10826653504198672384L
sbag1
(g2
g3
Ntp329
Rp330
(dp331
g7
L9920304079190360064L
sbag1
(g2
g3
Ntp332
Rp333
(dp334
g7
L887209126591987712L
sbag1
(g2
g3
Ntp335
Rp336
(dp337
g7
L5119185401436700672L
sbag1
(g2
g3
Ntp338
Rp339
(dp340
g7
L958985245653204992L
sbag1
(g2
g3
Ntp341
Rp342
(dp343
g7
L5180951291760738304L
sbag1
(g2
g3
Ntp344
Rp345
(dp346
g7
L5218827543192272896L
sbag1
(g2
g3
Ntp347
Rp348
(dp349
g7
L9811994212395122688L
sbag1
(g2
g3
Ntp350
Rp351
(dp352
g7
L3512807709348986880L
sbag1
(g2
g3
Ntp353
Rp354
(dp355
g7
L5151752935851425792L
sbag1
(g2
g3
Ntp356
Rp357
(dp358
g7
L7698428573966663680L
sbag1
(g2
g3
Ntp359
Rp360
(dp361
g7
L5225582942633328640L
sbag1
(g2
g3
Ntp362
Rp363
(dp364
g7
L3592214439106969600L
sbag1
(g2
g3
Ntp365
Rp366
(dp367
g7
L6093393385576464384L
sbag1
(g2
g3
Ntp368
Rp369
(dp370
g7
L7715421526173941760L
sbag1
(g2
g3
Ntp371
Rp372
(dp373
g7
L10722608917885485056L
sbag1
(g2
g3
Ntp374
Rp375
(dp376
g7
L5152399448688558080L
sbag1
(g2
g3
Ntp377
Rp378
(dp379
g7
L5221712661703557120L
sbag1
(g2
g3
Ntp380
Rp381
(dp382
g7
L5222275611656978432L
sbag1
(g2
g3
Ntp383
Rp384
(dp385
g7
L3837066882519662592L
sbag1
(g2
g3
Ntp386
Rp387
(dp388
g7
L1381004196672700416L
sbag1
(g2
g3
Ntp389
Rp390
(dp391
g7
L5156903048315928576L
sbag1
(g2
g3
Ntp392
Rp393
(dp394
g7
L5158028948222771200L
sbag1
(g2
g3
Ntp395
Rp396
(dp397
g7
L5534642467061628928L
sbag1
(g2
g3
Ntp398
Rp399
(dp400
g7
L4309944843393564672L
sbag1
(g2
g3
Ntp401
Rp402
(dp403
g7
L9862038759011254272L
sbag1
(g2
g3
Ntp404
Rp405
(dp406
g7
L5836665117072162816L
sbag1
(g2
g3
Ntp407
Rp408
(dp409
g7
L5176958140406562816L
sbag1
(g2
g3
Ntp410
Rp411
(dp412
g7
L5191524470451339264L
sbag1
(g2
g3
Ntp413
Rp414
(dp415
g7
L9777314791021346816L
sbag1
(g2
g3
Ntp416
Rp417
(dp418
g7
L9926600982282633216L
sbag1
(g2
g3
Ntp419
Rp420
(dp421
g7
L9263411852291866624L
sbag1
(g2
g3
Ntp422
Rp423
(dp424
g7
L5180846013522378752L
sbag1
(g2
g3
Ntp425
Rp426
(dp427
g7
L9931281603282075648L
sbag1
(g2
g3
Ntp428
Rp429
(dp430
g7
L5150147648874872832L
sbag1
(g2
g3
Ntp431
Rp432
(dp433
g7
L961237045466890240L
sbag1
(g2
g3
Ntp434
Rp435
(dp436
g7
L1342917113886539776L
sbag1
(g2
g3
Ntp437
Rp438
(dp439
g7
L9923607012120199168L
sbag1
(g2
g3
Ntp440
Rp441
(dp442
g7
L9936911102816288768L
sbag1
(g2
g3
Ntp443
Rp444
(dp445
g7
L10732077912023891968L
sbag1
(g2
g3
Ntp446
Rp447
(dp448
g7
L5154000337618599936L
sbag1
(g2
g3
Ntp449
Rp450
(dp451
g7
L9924807678817730560L
sbag1
(g2
g3
Ntp452
Rp453
(dp454
g7
L5144236674363949056L
sbag1
(g2
g3
Ntp455
Rp456
(dp457
g7
L1358961187559047168L
sbag1
(g2
g3
Ntp458
Rp459
(dp460
g7
L9742411893909225472L
sbag1
(g2
g3
Ntp461
Rp462
(dp463
g7
L10721100387932176384L
sbag1
(g2
g3
Ntp464
Rp465
(dp466
g7
L9921711454073913344L
sbag1
(g2
g3
Ntp467
Rp468
(dp469
g7
L9827980286829264896L
sbag1
(g2
g3
Ntp470
Rp471
(dp472
g7
L9263781288198799360L
sbag1
(g2
g3
Ntp473
Rp474
(dp475
g7
L3098476543630901248L
sbag1
(g2
g3
Ntp476
Rp477
(dp478
g7
L3242591731706757120L
sbag1
(g2
g3
Ntp479
Rp480
(dp481
g7
L5182517271196598272L
sbag1
(g2
g3
Ntp482
Rp483
(dp484
g7
L6918654927547924480L
sbag1
(g2
g3
Ntp485
Rp486
(dp487
g7
L5171047165895639040L
sbag1
(g2
g3
Ntp488
Rp489
(dp490
g7
L5187020870823968768L
sbag1
(g2
g3
Ntp491
Rp492
(dp493
g7
L955365653374566400L
sbag1
(g2
g3
Ntp494
Rp495
(dp496
g7
L12682136550675316736L
sbag1
(g2
g3
Ntp497
Rp498
(dp499
g7
L953637221095702528L
sbag1
(g2
g3
Ntp500
Rp501
(dp502
g7
L5221374012122202112L
sbag1
(g2
g3
Ntp503
Rp504
(dp505
g7
L9260949564720939008L
sbag1
(g2
g3
Ntp506
Rp507
(dp508
g7
L9260949977037799424L
sbag1
(g2
g3
Ntp509
Rp510
(dp511
g7
L951385421282017280L
sbag1
(g2
g3
Ntp512
Rp513
(dp514
g7
L6090679790879113216L
sbag1
(g2
g3
Ntp515
Rp516
(dp517
g7
L9284452106800988160L
sbag1
(g2
g3
Ntp518
Rp519
(dp520
g7
L1381127341975011328L
sbag1
(g2
g3
Ntp521
Rp522
(dp523
g7
L9681613298939723776L
sbag1
(g2
g3
Ntp524
Rp525
(dp526
g7
L7858781349761515520L
sbag1
(g2
g3
Ntp527
Rp528
(dp529
g7
L6093458256762503168L
sbag1
(g2
g3
Ntp530
Rp531
(dp532
g7
L940126422213591040L
sbag1
(g2
g3
Ntp533
Rp534
(dp535
g7
L9923470672678354944L
sbag1
(g2
g3
Ntp536
Rp537
(dp538
g7
L1374723786254843904L
sbag1
(g2
g3
Ntp539
Rp540
(dp541
g7
L1347702188490620928L
sbag1
(g2
g3
Ntp542
Rp543
(dp544
g7
L9855001884593487872L
sbag1
(g2
g3
Ntp545
Rp546
(dp547
g7
L5180949573773819904L
sbag1
(g2
g3
Ntp548
Rp549
(dp550
g7
L5166473197524090880L
sbag1
(g2
g3
Ntp551
Rp552
(dp553
g7
L2233785415175766016L
sbag1
(g2
g3
Ntp554
Rp555
(dp556
g7
L5160280748036456448L
sbag1
(g2
g3
Ntp557
Rp558
(dp559
g7
L9926593904176529408L
sbag1
(g2
g3
Ntp560
Rp561
(dp562
g7
L9923189197701644288L
sbag1
(g2
g3
Ntp563
Rp564
(dp565
g7
L5152962398641979392L
sbag1
(g2
g3
Ntp566
Rp567
(dp568
g7
L9807714088506097664L
sbag1
(g2
g3
Ntp569
Rp570
(dp571
g7
L5111585577065512960L
sbag1
(g2
g3
Ntp572
Rp573
(dp574
g7
L5172173065802481664L
sbag1
(g2
g3
Ntp575
Rp576
(dp577
g7
L5137481274922893312L
sbag1
(g2
g3
Ntp578
Rp579
(dp580
g7
L5150710598828294144L
sbag1
(g2
g3
Ntp581
Rp582
(dp583
g7
L6924437259198398464L
sbag1
(g2
g3
Ntp584
Rp585
(dp586
g7
L6090274071088463872L
sbag1
(g2
g3
Ntp587
Rp588
(dp589
g7
L5154440142269710336L
sbag1
(g2
g3
Ntp590
Rp591
(dp592
g7
L5057542381537067008L
sbag1
(g2
g3
Ntp593
Rp594
(dp595
g7
L5180948268103761920L
sbag1
(g2
g3
Ntp596
Rp597
(dp598
g7
L9935921542351290368L
sbag1
(g2
g3
Ntp599
Rp600
(dp601
g7
L5221366092202508288L
sbag1
(g2
g3
Ntp602
Rp603
(dp604
g7
L5169287947291197440L
sbag1
(g2
g3
Ntp605
Rp606
(dp607
g7
L9624192403690749952L
sbag1
(g2
g3
Ntp608
Rp609
(dp610
g7
L9750293193257123840L
sbag1
(g2
g3
Ntp611
Rp612
(dp613
g7
L9757893017628311552L
sbag1
(g2
g3
Ntp614
Rp615
(dp616
g7
L1388234585136955392L
sbag1
(g2
g3
Ntp617
Rp618
(dp619
g7
L5219883074354937856L
sbag1
(g2
g3
Ntp620
Rp621
(dp622
g7
L9926215053701283840L
sbag1
(g2
g3
Ntp623
Rp624
(dp625
g7
L9813625063017021440L
sbag1
(g2
g3
Ntp626
Rp627
(dp628
g7
L3476778912330022912L
sbag1
(g2
g3
Ntp629
Rp630
(dp631
g7
L1381760660672610304L
sbag1
(g2
g3
Ntp632
Rp633
(dp634
g7
L9927851127003414528L
sbag1
(g2
g3
Ntp635
Rp636
(dp637
g7
L5536049841945182208L
sbag1
(g2
g3
Ntp638
Rp639
(dp640
g7
L9825728487015579648L
sbag1
(g2
g3
Ntp641
Rp642
(dp643
g7
L9823476687201894400L
sbag1
(g2
g3
Ntp644
Rp645
(dp646
g7
L5215449843471745024L
sbag1
(g2
g3
Ntp647
Rp648
(dp649
g7
L1342354163933118464L
sbag1
(g2
g3
Ntp650
Rp651
(dp652
g7
L5159154848129613824L
sbag1
(g2
g3
Ntp653
Rp654
(dp655
g7
L5160843697989877760L
sbag1
(g2
g3
Ntp656
Rp657
(dp658
g7
L5121718676227096576L
sbag1
(g2
g3
Ntp659
Rp660
(dp661
g7
L5123970476040781824L
sbag1
(g2
g3
Ntp662
Rp663
(dp664
g7
L1379227385882214400L
sbag1
(g2
g3
Ntp665
Rp666
(dp667
g7
L9926593560579145728L
sbag1
(g2
g3
Ntp668
Rp669
(dp670
g7
L5221237672680357888L
sbag1
(g2
g3
Ntp671
Rp672
(dp673
g7
L5221308041424535552L
sbag1
(g2
g3
Ntp674
Rp675
(dp676
g7
L4971973988617027584L
sbag1
(g2
g3
Ntp677
Rp678
(dp679
g7
L959548195606626304L
sbag1
(g2
g3
Ntp680
Rp681
(dp682
g7
L9260878577501470720L
sbag1
(g2
g3
Ntp683
Rp684
(dp685
g7
L10754595910160744448L
sbag1
(g2
g3
Ntp686
Rp687
(dp688
g7
L4485585228861014016L
sbag1
(g2
g3
Ntp689
Rp690
(dp691
g7
L9260949221123555328L
sbag1
(g2
g3
Ntp692
Rp693
(dp694
g7
L5404319552844595200L
sbag1
(g2
g3
Ntp695
Rp696
(dp697
g7
L6013431402446454784L
sbag1
(g2
g3
Ntp698
Rp699
(dp700
g7
L504403158265495552L
sbag1
(g2
g3
Ntp701
Rp702
(dp703
g7
L5223682986540531712L
sbag1
(g2
g3
Ntp704
Rp705
(dp706
g7
L5067182899489406976L
sbag1
(g2
g3
Ntp707
Rp708
(dp709
g7
L5152047604967669760L
sbag1
(g2
g3
Ntp710
Rp711
(dp712
g7
L5566449139429933056L
sbag1
(g2
g3
Ntp713
Rp714
(dp715
g7
L9665850700243927040L
sbag1
(g2
g3
Ntp716
Rp717
(dp718
g7
L3544332906740580352L
sbag1
(g2
g3
Ntp719
Rp720
(dp721
g7
L9677391174289063936L
sbag1
(g2
g3
Ntp722
Rp723
(dp724
g7
L9732278794747641856L
sbag1
(g2
g3
Ntp725
Rp726
(dp727
g7
L9677954124242485248L
sbag1
(g2
g3
Ntp728
Rp729
(dp730
g7
L5154025626386038784L
sbag1
(g2
g3
Ntp731
Rp732
(dp733
g7
L9926707634910527488L
sbag1
(g2
g3
Ntp734
Rp735
(dp736
g7
L7716636486522634240L
sbag1
(g2
g3
Ntp737
Rp738
(dp739
g7
L5171328640872349696L
sbag1
(g2
g3
Ntp740
Rp741
(dp742
g7
L5180964760778178560L
sbag1
(g2
g3
Ntp743
Rp744
(dp745
g7
L9864853508778360832L
sbag1
(g2
g3
Ntp746
Rp747
(dp748
g7
L1343377740539101184L
sbag1
(g2
g3
Ntp749
Rp750
(dp751
g7
L5221571924215201792L
sbag1
(g2
g3
Ntp752
Rp753
(dp754
g7
L1382411571556253696L
sbag1
(g2
g3
Ntp755
Rp756
(dp757
g7
L955370326298984448L
sbag1
(g2
g3
Ntp758
Rp759
(dp760
g7
L1459166279268040704L
sbag1
(g2
g3
Ntp761
Rp762
(dp763
g7
L10789498807272865792L
sbag1
(g2
g3
Ntp764
Rp765
(dp766
g7
L3588243003107442688L
sbag1
(g2
g3
Ntp767
Rp768
(dp769
g7
L3776549762526871552L
sbag1
(g2
g3
Ntp770
Rp771
(dp772
g7
L5221392703819874304L
sbag1
(g2
g3
Ntp773
Rp774
(dp775
g7
L9926595278566064128L
sbag1
(g2
g3
Ntp776
Rp777
(dp778
g7
L5221365971943424000L
sbag1
(g2
g3
Ntp779
Rp780
(dp781
g7
L5065423680884965376L
sbag1
(g2
g3
Ntp782
Rp783
(dp784
g7
L5157465998269349888L
sbag1
(g2
g3
Ntp785
Rp786
(dp787
g7
L5533516567154786304L
sbag1
(g2
g3
Ntp788
Rp789
(dp790
g7
L9263060008570978304L
sbag1
(g2
g3
Ntp791
Rp792
(dp793
g7
L9926596859114029056L
sbag1
(g2
g3
Ntp794
Rp795
(dp796
g7
L9932407503188918272L
sbag1
(g2
g3
Ntp797
Rp798
(dp799
g7
L5221366160921985024L
sbag1
(g2
g3
Ntp800
Rp801
(dp802
g7
L9861475809057832960L
sbag1
(g2
g3
Ntp803
Rp804
(dp805
g7
L9862601708964675584L
sbag1
(g2
g3
Ntp806
Rp807
(dp808
g7
L5163728816501161984L
sbag1
(g2
g3
Ntp809
Rp810
(dp811
g7
L5154023427362783232L
sbag1
(g2
g3
Ntp812
Rp813
(dp814
g7
L5177380352871628800L
sbag1
(g2
g3
Ntp815
Rp816
(dp817
g7
L5177239615383273472L
sbag1
(g2
g3
Ntp818
Rp819
(dp820
g7
L1382442357881831424L
sbag1
(g2
g3
Ntp821
Rp822
(dp823
g7
L5189272670637654016L
sbag1
(g2
g3
Ntp824
Rp825
(dp826
g7
L5193776270265024512L
sbag1
(g2
g3
Ntp827
Rp828
(dp829
g7
L1343378084136484864L
sbag1
(g2
g3
Ntp830
Rp831
(dp832
g7
L1343378633892298752L
sbag1
(g2
g3
Ntp833
Rp834
(dp835
g7
L5227834742447013888L
sbag1
(g2
g3
Ntp836
Rp837
(dp838
g7
L9261036907175870464L
sbag1
(g2
g3
Ntp839
Rp840
(dp841
g7
L1344043013793382400L
sbag1
(g2
g3
Ntp842
Rp843
(dp844
g7
L5985283904775389184L
sbag1
(g2
g3
Ntp845
Rp846
(dp847
g7
L9679361499126038528L
sbag1
(g2
g3
Ntp848
Rp849
(dp850
g7
L9930718653328654336L
sbag1
(g2
g3
Ntp851
Rp852
(dp853
g7
L9803896584134459392L
sbag1
(g2
g3
Ntp854
Rp855
(dp856
g7
L7687644563921436672L
sbag1
(g2
g3
Ntp857
Rp858
(dp859
g7
L9529616811515969536L
sbag1
(g2
g3
Ntp860
Rp861
(dp862
g7
L1382534716858564608L
sbag1
(g2
g3
Ntp863
Rp864
(dp865
g7
L5151273548781715456L
sbag1
(g2
g3
Ntp866
Rp867
(dp868
g7
L4089268461652410368L
sbag1
(g2
g3
Ntp869
Rp870
(dp871
g7
L5154299404781355008L
sbag1
(g2
g3
Ntp872
Rp873
(dp874
g7
L9935222252956024832L
sbag1
(g2
g3
Ntp875
Rp876
(dp877
g7
L2594073385365405696L
sbag1
(g2
g3
Ntp878
Rp879
(dp880
g7
L1382431087887646720L
sbag1
(g2
g3
Ntp881
Rp882
(dp883
g7
L9936348152862867456L
sbag1
(g2
g3
Ntp884
Rp885
(dp886
g7
L5278218763278221312L
sbag1
(g2
g3
Ntp887
Rp888
(dp889
g7
L1343462471653916672L
sbag1
(g2
g3
Ntp890
Rp891
(dp892
g7
L5163429749338406912L
sbag1
(g2
g3
Ntp893
Rp894
(dp895
g7
L5153965153246511104L
sbag1
(g2
g3
Ntp896
Rp897
(dp898
g7
L9812147319389290496L
sbag1
(g2
g3
Ntp899
Rp900
(dp901
g7
L5171909183011815424L
sbag1
(g2
g3
Ntp902
Rp903
(dp904
g7
L5171944367383904256L
sbag1
(g2
g3
Ntp905
Rp906
(dp907
g7
L9812024174086979584L
sbag1
(g2
g3
Ntp908
Rp909
(dp910
g7
L9278822607266775040L
sbag1
(g2
g3
Ntp911
Rp912
(dp913
g7
L6924548309872803840L
sbag1
(g2
g3
Ntp914
Rp915
(dp916
g7
L9744663693722910720L
sbag1
(g2
g3
Ntp917
Rp918
(dp919
g7
L5171768445523460096L
sbag1
(g2
g3
Ntp920
Rp921
(dp922
g7
L5163478127850029056L
sbag1
(g2
g3
Ntp923
Rp924
(dp925
g7
L6090691885507018752L
sbag1
(g2
g3
Ntp926
Rp927
(dp928
g7
L10722226287839019008L
sbag1
(g2
g3
Ntp929
Rp930
(dp931
g7
L5225934786354216960L
sbag1
(g2
g3
Ntp932
Rp933
(dp934
g7
L9922837353980755968L
sbag1
(g2
g3
Ntp935
Rp936
(dp937
g7
L9832483886456635392L
sbag1
(g2
g3
Ntp938
Rp939
(dp940
g7
L9834735686270320640L
sbag1
(g2
g3
Ntp941
Rp942
(dp943
g7
L1356427912768651264L
sbag1
(g2
g3
Ntp944
Rp945
(dp946
g7
L10592466323575406592L
sbag1
(g2
g3
Ntp947
Rp948
(dp949
g7
L9263816472570888192L
sbag1
(g2
g3
Ntp950
Rp951
(dp952
g7
L6931039826523193344L
sbag1
(g2
g3
Ntp953
Rp954
(dp955
g7
L7715457810057658368L
sbag1
(g2
g3
Ntp956
Rp957
(dp958
g7
L9286140956661252096L
sbag1
(g2
g3
Ntp959
Rp960
(dp961
g7
L5155214198455664640L
sbag1
(g2
g3
Ntp962
Rp963
(dp964
g7
L6094848039460012032L
sbag1
(g2
g3
Ntp965
Rp966
(dp967
g7
L5155777148409085952L
sbag1
(g2
g3
Ntp968
Rp969
(dp970
g7
L9927692797329014784L
sbag1
(g2
g3
Ntp971
Rp972
(dp973
g7
L9927974272305725440L
sbag1
(g2
g3
Ntp974
Rp975
(dp976
g7
L9278158502243598336L
sbag1
(g2
g3
Ntp977
Rp978
(dp979
g7
L9278176094429642752L
sbag1
(g2
g3
Ntp980
Rp981
(dp982
g7
L3752624389506465792L
sbag1
(g2
g3
Ntp983
Rp984
(dp985
g7
L9278330026057531392L
sbag1
(g2
g3
Ntp986
Rp987
(dp988
g7
L9279385557220196352L
sbag1
(g2
g3
Ntp989
Rp990
(dp991
g7
L5226779211284348928L
sbag1
(g2
g3
Ntp992
Rp993
(dp994
g7
L5226919948772704256L
sbag1
(g2
g3
Ntp995
Rp996
(dp997
g7
L9787447890182930432L
sbag1
(g2
g3
Ntp998
Rp999
(dp1000
g7
L964614745187418112L
sbag1
(g2
g3
Ntp1001
Rp1002
(dp1003
g7
L5222557086633689088L
sbag1
(g2
g3
Ntp1004
Rp1005
(dp1006
g7
L5222697824122044416L
sbag1
(g2
g3
Ntp1007
Rp1008
(dp1009
g7
L9260949702159892480L
sbag1
(g2
g3
Ntp1010
Rp1011
(dp1012
g7
L5165347297617248256L
sbag1
(g2
g3
Ntp1013
Rp1014
(dp1015
g7
L7715427023732080640L
sbag1
(g2
g3
Ntp1016
Rp1017
(dp1018
g7
L3747839314902384640L
sbag1
(g2
g3
Ntp1019
Rp1020
(dp1021
g7
L9870764483289284608L
sbag1
(g2
g3
Ntp1022
Rp1023
(dp1024
g7
L9789699689996615680L
sbag1
(g2
g3
Ntp1025
Rp1026
(dp1027
g7
L6090681989902368768L
sbag1
(g2
g3
Ntp1028
Rp1029
(dp1030
g7
L7714947636662370304L
sbag1
(g2
g3
Ntp1031
Rp1032
(dp1033
g7
L9285015056754409472L
sbag1
(g2
g3
Ntp1034
Rp1035
(dp1036
g7
L9935837979467579392L
sbag1
(g2
g3
Ntp1037
Rp1038
(dp1039
g7
L1400619484112224256L
sbag1
(g2
g3
Ntp1040
Rp1041
(dp1042
g7
L967148019977814016L
sbag1
(g2
g3
Ntp1043
Rp1044
(dp1045
g7
L944348546864250880L
sbag1
(g2
g3
Ntp1046
Rp1047
(dp1048
g7
L945474446771093504L
sbag1
(g2
g3
Ntp1049
Rp1050
(dp1051
g7
L9812002183854424064L
sbag1
(g2
g3
Ntp1052
Rp1053
(dp1054
g7
L3801038085500698624L
sbag1
(g2
g3
Ntp1055
Rp1056
(dp1057
g7
L7885802947525738496L
sbag1
(g2
g3
Ntp1058
Rp1059
(dp1060
g7
L5141984874550263808L
sbag1
(g2
g3
Ntp1061
Rp1062
(dp1063
g7
L7711288461965131776L
sbag1
(g2
g3
Ntp1064
Rp1065
(dp1066
g7
L7695525863269335040L
sbag1
(g2
g3
Ntp1067
Rp1068
(dp1069
g7
L1370220186627473408L
sbag1
(g2
g3
Ntp1070
Rp1071
(dp1072
g7
L4161326055690338304L
sbag1
(g2
g3
Ntp1073
Rp1074
(dp1075
g7
L1376975586068529152L
sbag1
(g2
g3
Ntp1076
Rp1077
(dp1078
g7
L5531546242317811712L
sbag1
(g2
g3
Ntp1079
Rp1080
(dp1081
g7
L49539595901075456L
sbag1
(g2
g3
Ntp1082
Rp1083
(dp1084
g7
L1349953988304306176L
sbag1
(g2
g3
Ntp1085
Rp1086
(dp1087
g7
L8718968878589280256L
sbag1
(g2
g3
Ntp1088
Rp1089
(dp1090
g7
L9859505484220858368L
sbag1
(g2
g3
Ntp1091
Rp1092
(dp1093
g7
L10722718869048262656L
sbag1
(g2
g3
Ntp1094
Rp1095
(dp1096
g7
L1343550432584138752L
sbag1
(g2
g3
Ntp1097
Rp1098
(dp1099
g7
L1508705875169116160L
sbag1
(g2
g3
Ntp1100
Rp1101
(dp1102
g7
L5179421046452781056L
sbag1
(g2
g3
Ntp1103
Rp1104
(dp1105
g7
L1801439850948198400L
sbag1
(g2
g3
Ntp1106
Rp1107
(dp1108
g7
L5524790842876755968L
sbag1
(g2
g3
Ntp1109
Rp1110
(dp1111
g7
L5529294442504126464L
sbag1
(g2
g3
Ntp1112
Rp1113
(dp1114
g7
L9926597408869842944L
sbag1
(g2
g3
Ntp1115
Rp1116
(dp1117
g7
L9889904781705609216L
sbag1
(g2
g3
Ntp1118
Rp1119
(dp1120
g7
L5224105199005597696L
sbag1
(g2
g3
Ntp1121
Rp1122
(dp1123
g7
L9923329935189999616L
sbag1
(g2
g3
Ntp1124
Rp1125
(dp1126
g7
L5075556780046548992L
sbag1
(g2
g3
Ntp1127
Rp1128
(dp1129
g7
L9811373263203336192L
sbag1
(g2
g3
Ntp1130
Rp1131
(dp1132
g7
L1657324662872342528L
sbag1
(g2
g3
Ntp1133
Rp1134
(dp1135
g7
L5102578377810771968L
sbag1
(g2
g3
Ntp1136
Rp1137
(dp1138
g7
L5093571178556030976L
sbag1
(g2
g3
Ntp1139
Rp1140
(dp1141
g7
L5172032328314126336L
sbag1
(g2
g3
Ntp1142
Rp1143
(dp1144
g7
L5221366246821330944L
sbag1
(g2
g3
Ntp1145
Rp1146
(dp1147
g7
L10777113908297596928L
sbag1
(g2
g3
Ntp1148
Rp1149
(dp1150
g7
L7723673360940400640L
sbag1
(g2
g3
Ntp1151
Rp1152
(dp1153
g7
L3598376102269026304L
sbag1
(g2
g3
Ntp1154
Rp1155
(dp1156
g7
L7741687759449882624L
sbag1
(g2
g3
Ntp1157
Rp1158
(dp1159
g7
L962644420350443520L
sbag1
(g2
g3
Ntp1160
Rp1161
(dp1162
g7
L9926989109887238144L
sbag1
(g2
g3
Ntp1163
Rp1164
(dp1165
g7
L5223032075656888320L
sbag1
(g2
g3
Ntp1166
Rp1167
(dp1168
g7
L6924439458221654016L
sbag1
(g2
g3
Ntp1169
Rp1170
(dp1171
g7
L5151783722177003520L
sbag1
(g2
g3
Ntp1172
Rp1173
(dp1174
g7
L9815876862830706688L
sbag1
(g2
g3
Ntp1175
Rp1176
(dp1177
g7
L9816439812784128000L
sbag1
(g2
g3
Ntp1178
Rp1179
(dp1180
g7
L5154721617246420992L
sbag1
(g2
g3
Ntp1181
Rp1182
(dp1183
g7
L9927340953608126464L
sbag1
(g2
g3
Ntp1184
Rp1185
(dp1186
g7
L4318952042648305664L
sbag1
(g2
g3
Ntp1187
Rp1188
(dp1189
g7
L5181039527568867328L
sbag1
(g2
g3
Ntp1190
Rp1191
(dp1192
g7
L9811996686296285184L
sbag1
(g2
g3
Ntp1193
Rp1194
(dp1195
g7
L5220023811843293184L
sbag1
(g2
g3
Ntp1196
Rp1197
(dp1198
g7
L9812499163110178816L
sbag1
(g2
g3
Ntp1199
Rp1200
(dp1201
g7
L10682538316122816512L
sbag1
(g2
g3
Ntp1202
Rp1203
(dp1204
g7
L9804213243483258880L
sbag1
(g2
g3
Ntp1205
Rp1206
(dp1207
g7
L5168724997337776128L
sbag1
(g2
g3
Ntp1208
Rp1209
(dp1210
g7
L1357553812675493888L
sbag1
(g2
g3
Ntp1211
Rp1212
(dp1213
g7
L5217349799564541952L
sbag1
(g2
g3
Ntp1214
Rp1215
(dp1216
g7
L5221390779674525696L
sbag1
(g2
g3
Ntp1217
Rp1218
(dp1219
g7
L9926595690882924544L
sbag1
(g2
g3
Ntp1220
Rp1221
(dp1222
g7
L9757330067674890240L
sbag1
(g2
g3
Ntp1223
Rp1224
(dp1225
g7
L9805462288692412416L
sbag1
(g2
g3
Ntp1226
Rp1227
(dp1228
g7
L956733445839519744L
sbag1
(g2
g3
Ntp1229
Rp1230
(dp1231
g7
L5219742336866582528L
sbag1
(g2
g3
Ntp1232
Rp1233
(dp1234
g7
L1390486384950640640L
sbag1
(g2
g3
Ntp1235
Rp1236
(dp1237
g7
L1394989984578011136L
sbag1
(g2
g3
Ntp1238
Rp1239
(dp1240
g7
L10726448412489678848L
sbag1
(g2
g3
Ntp1241
Rp1242
(dp1243
g7
L1382253241881853952L
sbag1
(g2
g3
Ntp1244
Rp1245
(dp1246
g7
L1380634760765767680L
sbag1
(g2
g3
Ntp1247
Rp1248
(dp1249
g7
L10714063513514409984L
sbag1
(g2
g3
Ntp1250
Rp1251
(dp1252
g7
L4827858800541171712L
sbag1
(g2
g3
Ntp1253
Rp1254
(dp1255
g7
L5171733261151371264L
sbag1
(g2
g3
Ntp1256
Rp1257
(dp1258
g7
L5171803629895548928L
sbag1
(g2
g3
Ntp1259
Rp1260
(dp1261
g7
L9927886311375503360L
sbag1
(g2
g3
Ntp1262
Rp1263
(dp1264
g7
L5976276705520648192L
sbag1
(g2
g3
Ntp1265
Rp1266
(dp1267
g7
L5221853399191912448L
sbag1
(g2
g3
Ntp1268
Rp1269
(dp1270
g7
L9263750501873221632L
sbag1
(g2
g3
Ntp1271
Rp1272
(dp1273
g7
L9923664186724843520L
sbag1
(g2
g3
Ntp1274
Rp1275
(dp1276
g7
L6629298651489370112L
sbag1
(g2
g3
Ntp1277
Rp1278
(dp1279
g7
L9821224887388209152L
sbag1
(g2
g3
Ntp1280
Rp1281
(dp1282
g7
L10250192751895248896L
sbag1
(g2
g3
Ntp1283
Rp1284
(dp1285
g7
L10286221548914212864L
sbag1
(g2
g3
Ntp1286
Rp1287
(dp1288
g7
L1494069176380162048L
sbag1
(g2
g3
Ntp1289
Rp1290
(dp1291
g7
L10358279142952140800L
sbag1
(g2
g3
Ntp1292
Rp1293
(dp1294
g7
L1385138360393138176L
sbag1
(g2
g3
Ntp1295
Rp1296
(dp1297
g7
L5216012793425166336L
sbag1
(g2
g3
Ntp1298
Rp1299
(dp1300
g7
L1364590687093260288L
sbag1
(g2
g3
Ntp1301
Rp1302
(dp1303
g7
L5159717798083035136L
sbag1
(g2
g3
Ntp1304
Rp1305
(dp1306
g7
L6070852297695428608L
sbag1
(g2
g3
Ntp1307
Rp1308
(dp1309
g7
L10862682301217636352L
sbag1
(g2
g3
Ntp1310
Rp1311
(dp1312
g7
L5171469378360705024L
sbag1
(g2
g3
Ntp1313
Rp1314
(dp1315
g7
L6090686387948879872L
sbag1
(g2
g3
Ntp1316
Rp1317
(dp1318
g7
L9278220074894753792L
sbag1
(g2
g3
Ntp1319
Rp1320
(dp1321
g7
L5164221397710405632L
sbag1
(g2
g3
Ntp1322
Rp1323
(dp1324
g7
L7698551719268974592L
sbag1
(g2
g3
Ntp1325
Rp1326
(dp1327
g7
L5164784347663826944L
sbag1
(g2
g3
Ntp1328
Rp1329
(dp1330
g7
L6094214720762413056L
sbag1
(g2
g3
Ntp1331
Rp1332
(dp1333
g7
L7713540261778817024L
sbag1
(g2
g3
Ntp1334
Rp1335
(dp1336
g7
L9923629002352754688L
sbag1
(g2
g3
Ntp1337
Rp1338
(dp1339
g7
L896216325846728704L
sbag1
(g2
g3
Ntp1340
Rp1341
(dp1342
g7
L5221272857052446720L
sbag1
(g2
g3
Ntp1343
Rp1344
(dp1345
g7
L5221343225796624384L
sbag1
(g2
g3
Ntp1346
Rp1347
(dp1348
g7
L4701758010974797824L
sbag1
(g2
g3
Ntp1349
Rp1350
(dp1351
g7
L960674095513468928L
sbag1
(g2
g3
Ntp1352
Rp1353
(dp1354
g7
L5153877192316289024L
sbag1
(g2
g3
Ntp1355
Rp1356
(dp1357
g7
L957296395792941056L
sbag1
(g2
g3
Ntp1358
Rp1359
(dp1360
g7
L4197354852709302272L
sbag1
(g2
g3
Ntp1361
Rp1362
(dp1363
g7
L6269010681299730432L
sbag1
(g2
g3
Ntp1364
Rp1365
(dp1366
g7
L4233383649728266240L
sbag1
(g2
g3
Ntp1367
Rp1368
(dp1369
g7
L3868592079911256064L
sbag1
(g2
g3
Ntp1370
Rp1371
(dp1372
g7
L6102377495087022080L
sbag1
(g2
g3
Ntp1373
Rp1374
(dp1375
g7
L3886606478420738048L
sbag1
(g2
g3
Ntp1376
Rp1377
(dp1378
g7
L4521614025879977984L
sbag1
(g2
g3
Ntp1379
Rp1380
(dp1381
g7
L4593671619917905920L
sbag1
(g2
g3
Ntp1382
Rp1383
(dp1384
g7
L990791918021509120L
sbag1
(g2
g3
Ntp1385
Rp1386
(dp1387
g7
L9278188189057548288L
sbag1
(g2
g3
Ntp1388
Rp1389
(dp1390
g7
L6924354795826315264L
sbag1
(g2
g3
Ntp1391
Rp1392
(dp1393
g7
L9811994762150936576L
sbag1
(g2
g3
Ntp1394
Rp1395
(dp1396
g7
L5151744139758403584L
sbag1
(g2
g3
Ntp1397
Rp1398
(dp1399
g7
L6111384694341763072L
sbag1
(g2
g3
Ntp1400
Rp1401
(dp1402
g7
L9817565712690970624L
sbag1
(g2
g3
Ntp1403
Rp1404
(dp1405
g7
L5223823724028887040L
sbag1
(g2
g3
Ntp1406
Rp1407
(dp1408
g7
L5151625392502603776L
sbag1
(g2
g3
Ntp1409
Rp1410
(dp1411
g7
L6094988776948367360L
sbag1
(g2
g3
Ntp1412
Rp1413
(dp1414
g7
L9280511457127038976L
sbag1
(g2
g3
Ntp1415
Rp1416
(dp1417
g7
L7698393389594574848L
sbag1
(g2
g3
Ntp1418
Rp1419
(dp1420
g7
L5228397692400435200L
sbag1
(g2
g3
Ntp1421
Rp1422
(dp1423
g7
L5227271792493592576L
sbag1
(g2
g3
Ntp1424
Rp1425
(dp1426
g7
L9672606099684982784L
sbag1
(g2
g3
Ntp1427
Rp1428
(dp1429
g7
L3535325707485839360L
sbag1
(g2
g3
Ntp1430
Rp1431
(dp1432
g7
L3553340105995321344L
sbag1
(g2
g3
Ntp1433
Rp1434
(dp1435
g7
L3562347305250062336L
sbag1
(g2
g3
Ntp1436
Rp1437
(dp1438
g7
L9676265274382221312L
sbag1
(g2
g3
Ntp1439
Rp1440
(dp1441
g7
L9676828224335642624L
sbag1
(g2
g3
Ntp1442
Rp1443
(dp1444
g7
L5154070706362777600L
sbag1
(g2
g3
Ntp1445
Rp1446
(dp1447
g7
L9277696707359932416L
sbag1
(g2
g3
Ntp1448
Rp1449
(dp1450
g7
L9812059358459068416L
sbag1
(g2
g3
Ntp1451
Rp1452
(dp1453
g7
L5154019029316272128L
sbag1
(g2
g3
Ntp1454
Rp1455
(dp1456
g7
L1382430538131832832L
sbag1
(g2
g3
Ntp1457
Rp1458
(dp1459
g7
L5221483963284979712L
sbag1
(g2
g3
Ntp1460
Rp1461
(dp1462
g7
L6093395584599719936L
sbag1
(g2
g3
Ntp1463
Rp1464
(dp1465
g7
L9928466853514969088L
sbag1
(g2
g3
Ntp1466
Rp1467
(dp1468
g7
L9929029803468390400L
sbag1
(g2
g3
Ntp1469
Rp1470
(dp1471
g7
L9926848372398882816L
sbag1
(g2
g3
Ntp1472
Rp1473
(dp1474
g7
L9926588887654727680L
sbag1
(g2
g3
Ntp1475
Rp1476
(dp1477
g7
L5217191469890142208L
sbag1
(g2
g3
Ntp1478
Rp1479
(dp1480
g7
L1343405297049272320L
sbag1
(g2
g3
Ntp1481
Rp1482
(dp1483
g7
L10722600121792462848L
sbag1
(g2
g3
Ntp1484
Rp1485
(dp1486
g7
L5180938372499111936L
sbag1
(g2
g3
Ntp1487
Rp1488
(dp1489
g7
L9864290558824939520L
sbag1
(g2
g3
Ntp1490
Rp1491
(dp1492
g7
L1343377603100147712L
sbag1
(g2
g3
Ntp1493
Rp1494
(dp1495
g7
L7718043861406187520L
sbag1
(g2
g3
Ntp1496
Rp1497
(dp1498
g7
L5207287069147136000L
sbag1
(g2
g3
Ntp1499
Rp1500
(dp1501
g7
L5214042468588191744L
sbag1
(g2
g3
Ntp1502
Rp1503
(dp1504
g7
L5516909543528857600L
sbag1
(g2
g3
Ntp1505
Rp1506
(dp1507
g7
L9935574096676913152L
sbag1
(g2
g3
Ntp1508
Rp1509
(dp1510
g7
L9935996309141979136L
sbag1
(g2
g3
Ntp1511
Rp1512
(dp1513
g7
L955370876054798336L
sbag1
(g2
g3
Ntp1514
Rp1515
(dp1516
g7
L5222134874168623104L
sbag1
(g2
g3
Ntp1517
Rp1518
(dp1519
g7
L10782743407831810048L
sbag1
(g2
g3
Ntp1520
Rp1521
(dp1522
g7
L9926571295468683264L
sbag1
(g2
g3
Ntp1523
Rp1524
(dp1525
g7
L1487313776939106304L
sbag1
(g2
g3
Ntp1526
Rp1527
(dp1528
g7
L5172313803290836992L
sbag1
(g2
g3
Ntp1529
Rp1530
(dp1531
g7
L9796455089437671424L
sbag1
(g2
g3
Ntp1532
Rp1533
(dp1534
g7
L2089670227099910144L
sbag1
(g2
g3
Ntp1535
Rp1536
(dp1537
g7
L3778238612387135488L
sbag1
(g2
g3
Ntp1538
Rp1539
(dp1540
g7
L9938318477699842048L
sbag1
(g2
g3
Ntp1541
Rp1542
(dp1543
g7
L9278136512011042816L
sbag1
(g2
g3
Ntp1544
Rp1545
(dp1546
g7
L9940570277513527296L
sbag1
(g2
g3
Ntp1547
Rp1548
(dp1549
g7
L9869357108405731328L
sbag1
(g2
g3
Ntp1550
Rp1551
(dp1552
g7
L5221365834504470528L
sbag1
(g2
g3
Ntp1553
Rp1554
(dp1555
g7
L9942822077327212544L
sbag1
(g2
g3
Ntp1556
Rp1557
(dp1558
g7
L6096747995552808960L
sbag1
(g2
g3
Ntp1559
Rp1560
(dp1561
g7
L971651619605184512L
sbag1
(g2
g3
Ntp1562
Rp1563
(dp1564
g7
L9926549305236127744L
sbag1
(g2
g3
Ntp1565
Rp1566
(dp1567
g7
L6093401082157858816L
sbag1
(g2
g3
Ntp1568
Rp1569
(dp1570
g7
L9762678092232392704L
sbag1
(g2
g3
Ntp1571
Rp1572
(dp1573
g7
L9923601789439967232L
sbag1
(g2
g3
Ntp1574
Rp1575
(dp1576
g7
L9262497058617556992L
sbag1
(g2
g3
Ntp1577
Rp1578
(dp1579
g7
L9151314442816847872L
sbag1
(g2
g3
Ntp1580
Rp1581
(dp1582
g7
L1080863910568919040L
sbag1
(g2
g3
Ntp1583
Rp1584
(dp1585
g7
L9926596309358215168L
sbag1
(g2
g3
Ntp1586
Rp1587
(dp1588
g7
L10722630908118040576L
sbag1
(g2
g3
Ntp1589
Rp1590
(dp1591
g7
L6090766652297707520L
sbag1
(g2
g3
Ntp1592
Rp1593
(dp1594
g7
L3760505688854364160L
sbag1
(g2
g3
Ntp1595
Rp1596
(dp1597
g7
L6090907389786062848L
sbag1
(g2
g3
Ntp1598
Rp1599
(dp1600
g7
L955392041653633024L
sbag1
(g2
g3
Ntp1601
Rp1602
(dp1603
g7
L6949054225032675328L
sbag1
(g2
g3
Ntp1604
Rp1605
(dp1606
g7
L1382436860323692544L
sbag1
(g2
g3
Ntp1607
Rp1608
(dp1609
g7
L5163588079012806656L
sbag1
(g2
g3
Ntp1610
Rp1611
(dp1612
g7
L918734323983581184L
sbag1
(g2
g3
Ntp1613
Rp1614
(dp1615
g7
L1343375610235322368L
sbag1
(g2
g3
Ntp1616
Rp1617
(dp1618
g7
L9278242065127309312L
sbag1
(g2
g3
Ntp1619
Rp1620
(dp1621
g7
L1343380008281833472L
sbag1
(g2
g3
Ntp1622
Rp1623
(dp1624
g7
L5221361917494296576L
sbag1
(g2
g3
Ntp1625
Rp1626
(dp1627
g7
L9283044731917434880L
sbag1
(g2
g3
Ntp1628
Rp1629
(dp1630
g7
L1343691170072494080L
sbag1
(g2
g3
Ntp1631
Rp1632
(dp1633
g7
L1382459950067875840L
sbag1
(g2
g3
Ntp1634
Rp1635
(dp1636
g7
L9439544818968559616L
sbag1
(g2
g3
Ntp1637
Rp1638
(dp1639
g7
L1382451153974853632L
sbag1
(g2
g3
Ntp1640
Rp1641
(dp1642
g7
L5221448778912890880L
sbag1
(g2
g3
Ntp1643
Rp1644
(dp1645
g7
L9768307591766605824L
sbag1
(g2
g3
Ntp1646
Rp1647
(dp1648
g7
L5221413594540802048L
sbag1
(g2
g3
Ntp1649
Rp1650
(dp1651
g7
L1343376984624857088L
sbag1
(g2
g3
Ntp1652
Rp1653
(dp1654
g7
L5163869553989517312L
sbag1
(g2
g3
Ntp1655
Rp1656
(dp1657
g7
L5226216261330927616L
sbag1
(g2
g3
Ntp1658
Rp1659
(dp1660
g7
L5224457042726486016L
sbag1
(g2
g3
Ntp1661
Rp1662
(dp1663
g7
L9674576424521957376L
sbag1
(g2
g3
Ntp1664
Rp1665
(dp1666
g7
L9261001722803781632L
sbag1
(g2
g3
Ntp1667
Rp1668
(dp1669
g7
L5217261838634319872L
sbag1
(g2
g3
Ntp1670
Rp1671
(dp1672
g7
L1382432462277181440L
sbag1
(g2
g3
Ntp1673
Rp1674
(dp1675
g7
L1382434661300436992L
sbag1
(g2
g3
Ntp1676
Rp1677
(dp1678
g7
L7715299480383258624L
sbag1
(g2
g3
Ntp1679
Rp1680
(dp1681
g7
L9926580091561705472L
sbag1
(g2
g3
Ntp1682
Rp1683
(dp1684
g7
L5692549928996306944L
sbag1
(g2
g3
Ntp1685
Rp1686
(dp1687
g7
L7715580955359969280L
sbag1
(g2
g3
Ntp1688
Rp1689
(dp1690
g7
L5994291104030130176L
sbag1
(g2
g3
Ntp1691
Rp1692
(dp1693
g7
L3765836121225822208L
sbag1
(g2
g3
Ntp1694
Rp1695
(dp1696
g7
L5151761731944448000L
sbag1
(g2
g3
Ntp1697
Rp1698
(dp1699
g7
L5068519905628782592L
sbag1
(g2
g3
Ntp1700
Rp1701
(dp1702
g7
L9263552589780221952L
sbag1
(g2
g3
Ntp1703
Rp1704
(dp1705
g7
L7678637364666695680L
sbag1
(g2
g3
Ntp1706
Rp1707
(dp1708
g7
L648518346341351424L
sbag1
(g2
g3
Ntp1709
Rp1710
(dp1711
g7
L7705658962430918656L
sbag1
(g2
g3
Ntp1712
Rp1713
(dp1714
g7
L3386706919782612992L
sbag1
(g2
g3
Ntp1715
Rp1716
(dp1717
g7
L9565645608534933504L
sbag1
(g2
g3
Ntp1718
Rp1719
(dp1720
g7
L9601674405553897472L
sbag1
(g2
g3
Ntp1721
Rp1722
(dp1723
g7
L6090573138251218944L
sbag1
(g2
g3
Ntp1724
Rp1725
(dp1726
g7
L6090608322623307776L
sbag1
(g2
g3
Ntp1727
Rp1728
(dp1729
g7
L6090643506995396608L
sbag1
(g2
g3
Ntp1730
Rp1731
(dp1732
g7
L4053239664633446400L
sbag1
(g2
g3
Ntp1733
Rp1734
(dp1735
g7
L10723000344024973312L
sbag1
(g2
g3
Ntp1736
Rp1737
(dp1738
g7
L5171852008407171072L
sbag1
(g2
g3
Ntp1739
Rp1740
(dp1741
g7
L9923580623841132544L
sbag1
(g2
g3
Ntp1742
Rp1743
(dp1744
g7
L9912422779842461696L
sbag1
(g2
g3
Ntp1745
Rp1746
(dp1747
g7
L9923589419934154752L
sbag1
(g2
g3
Ntp1748
Rp1749
(dp1750
g7
L5221391329430339584L
sbag1
(g2
g3
Ntp1751
Rp1752
(dp1753
g7
L1382429988376018944L
sbag1
(g2
g3
Ntp1754
Rp1755
(dp1756
g7
L1423137482249076736L
sbag1
(g2
g3
Ntp1757
Rp1758
(dp1759
g7
L9285366900475297792L
sbag1
(g2
g3
Ntp1760
Rp1761
(dp1762
g7
L7566047373982433280L
sbag1
(g2
g3
Ntp1763
Rp1764
(dp1765
g7
L9285648375452008448L
sbag1
(g2
g3
Ntp1766
Rp1767
(dp1768
g7
L5926737109619572736L
sbag1
(g2
g3
Ntp1769
Rp1770
(dp1771
g7
L955537177188499456L
sbag1
(g2
g3
Ntp1772
Rp1773
(dp1774
g7
L955677914676854784L
sbag1
(g2
g3
Ntp1775
Rp1776
(dp1777
g7
L5163394564966318080L
sbag1
(g2
g3
Ntp1778
Rp1779
(dp1780
g7
L5314247560297185280L
sbag1
(g2
g3
Ntp1781
Rp1782
(dp1783
g7
L1352205788117991424L
sbag1
(g2
g3
Ntp1784
Rp1785
(dp1786
g7
L5163500118082584576L
sbag1
(g2
g3
Ntp1787
Rp1788
(dp1789
g7
L6924777008291381248L
sbag1
(g2
g3
Ntp1790
Rp1791
(dp1792
g7
L9926595416005017600L
sbag1
(g2
g3
Ntp1793
Rp1794
(dp1795
g7
L5180949848651726848L
sbag1
(g2
g3
Ntp1796
Rp1797
(dp1798
g7
L5196028070078709760L
sbag1
(g2
g3
Ntp1799
Rp1800
(dp1801
g7
L5171873998639726592L
sbag1
(g2
g3
Ntp1802
Rp1803
(dp1804
g7
L9811953805342801920L
sbag1
(g2
g3
Ntp1805
Rp1806
(dp1807
g7
L9926619673980305408L
sbag1
(g2
g3
Ntp1808
Rp1809
(dp1810
g7
L7656119366529843200L
sbag1
(g2
g3
Ntp1811
Rp1812
(dp1813
g7
L7715435819825102848L
sbag1
(g2
g3
Ntp1814
Rp1815
(dp1816
g7
L6924477941128626176L
sbag1
(g2
g3
Ntp1817
Rp1818
(dp1819
g7
L6924513125500715008L
sbag1
(g2
g3
Ntp1820
Rp1821
(dp1822
g7
L9737908294281854976L
sbag1
(g2
g3
Ntp1823
Rp1824
(dp1825
g7
L3748965214809227264L
sbag1
(g2
g3
Ntp1826
Rp1827
(dp1828
g7
L7133701809754865664L
sbag1
(g2
g3
Ntp1829
Rp1830
(dp1831
g7
L5163451739570962432L
sbag1
(g2
g3
Ntp1832
Rp1833
(dp1834
g7
L7277816997830721536L
sbag1
(g2
g3
Ntp1835
Rp1836
(dp1837
g7
L5070208755489046528L
sbag1
(g2
g3
Ntp1838
Rp1839
(dp1840
g7
L6090665497227952128L
sbag1
(g2
g3
Ntp1841
Rp1842
(dp1843
g7
L9260979732571226112L
sbag1
(g2
g3
Ntp1844
Rp1845
(dp1846
g7
L9260962140385181696L
sbag1
(g2
g3
Ntp1847
Rp1848
(dp1849
g7
L5538301641758867456L
sbag1
(g2
g3
Ntp1850
Rp1851
(dp1852
g7
L10721663337885597696L
sbag1
(g2
g3
Ntp1853
Rp1854
(dp1855
g7
L9260970936478203904L
sbag1
(g2
g3
Ntp1856
Rp1857
(dp1858
g7
L6926254751919112192L
sbag1
(g2
g3
Ntp1859
Rp1860
(dp1861
g7
L5226075523842572288L
sbag1
(g2
g3
Ntp1862
Rp1863
(dp1864
g7
L9922274404027334656L
sbag1
(g2
g3
Ntp1865
Rp1866
(dp1867
g7
L3781897787084374016L
sbag1
(g2
g3
Ntp1868
Rp1869
(dp1870
g7
L6093862877041524736L
sbag1
(g2
g3
Ntp1871
Rp1872
(dp1873
g7
L7043629817207455744L
sbag1
(g2
g3
Ntp1874
Rp1875
(dp1876
g7
L9278470763545886720L
sbag1
(g2
g3
Ntp1877
Rp1878
(dp1879
g7
L1355864962815229952L
sbag1
(g2
g3
Ntp1880
Rp1881
(dp1882
g7
L6971572223169527808L
sbag1
(g2
g3
Ntp1883
Rp1884
(dp1885
g7
L949415096445042688L
sbag1
(g2
g3
Ntp1886
Rp1887
(dp1888
g7
L7007601020188491776L
sbag1
(g2
g3
Ntp1889
Rp1890
(dp1891
g7
L9263851656942977024L
sbag1
(g2
g3
Ntp1892
Rp1893
(dp1894
g7
L2954361355555045376L
sbag1
(g2
g3
Ntp1895
Rp1896
(dp1897
g7
L9263886841315065856L
sbag1
(g2
g3
Ntp1898
Rp1899
(dp1900
g7
L67553994410557440L
sbag1
(g2
g3
Ntp1901
Rp1902
(dp1903
g7
L7715387441313480704L
sbag1
(g2
g3
Ntp1904
Rp1905
(dp1906
g7
L6940047025777934336L
sbag1
(g2
g3
Ntp1907
Rp1908
(dp1909
g7
L9278048551080820736L
sbag1
(g2
g3
Ntp1910
Rp1911
(dp1912
g7
L955343663142010880L
sbag1
(g2
g3
Ntp1913
Rp1914
(dp1915
g7
L937874622399905792L
sbag1
(g2
g3
Ntp1916
Rp1917
(dp1918
g7
L955414031886188544L
sbag1
(g2
g3
Ntp1919
Rp1920
(dp1921
g7
L6094566564483301376L
sbag1
(g2
g3
Ntp1922
Rp1923
(dp1924
g7
L5201657569612922880L
sbag1
(g2
g3
Ntp1925
Rp1926
(dp1927
g7
L6094707301971656704L
sbag1
(g2
g3
Ntp1928
Rp1929
(dp1930
g7
L5170765690918928384L
sbag1
(g2
g3
Ntp1931
Rp1932
(dp1933
g7
L5170906428407283712L
sbag1
(g2
g3
Ntp1934
Rp1935
(dp1936
g7
L6920906727361609728L
sbag1
(g2
g3
Ntp1937
Rp1938
(dp1939
g7
L7700029462896705536L
sbag1
(g2
g3
Ntp1940
Rp1941
(dp1942
g7
L6923158527175294976L
sbag1
(g2
g3
Ntp1943
Rp1944
(dp1945
g7
L1382112504393498624L
sbag1
(g2
g3
Ntp1946
Rp1947
(dp1948
g7
L9928115009794080768L
sbag1
(g2
g3
Ntp1949
Rp1950
(dp1951
g7
L9278167298336620544L
sbag1
(g2
g3
Ntp1952
Rp1953
(dp1954
g7
L6142909891733356544L
sbag1
(g2
g3
Ntp1955
Rp1956
(dp1957
g7
L3772890587829633024L
sbag1
(g2
g3
Ntp1958
Rp1959
(dp1960
g7
L9849372385059274752L
sbag1
(g2
g3
Ntp1961
Rp1962
(dp1963
g7
L3750372589692780544L
sbag1
(g2
g3
Ntp1964
Rp1965
(dp1966
g7
L9802366063948595200L
sbag1
(g2
g3
Ntp1967
Rp1968
(dp1969
g7
L9261072091547959296L
sbag1
(g2
g3
Ntp1970
Rp1971
(dp1972
g7
L955383245560610816L
sbag1
(g2
g3
Ntp1973
Rp1974
(dp1975
g7
L9802929013902016512L
sbag1
(g2
g3
Ntp1976
Rp1977
(dp1978
g7
L9803491963855437824L
sbag1
(g2
g3
Ntp1979
Rp1980
(dp1981
g7
L5226638473795993600L
sbag1
(g2
g3
Ntp1982
Rp1983
(dp1984
g7
L9803791031018192896L
sbag1
(g2
g3
Ntp1985
Rp1986
(dp1987
g7
L9811865844412579840L
sbag1
(g2
g3
Ntp1988
Rp1989
(dp1990
g7
L9260952244780531712L
sbag1
(g2
g3
Ntp1991
Rp1992
(dp1993
g7
L9803861399762370560L
sbag1
(g2
g3
Ntp1994
Rp1995
(dp1996
g7
L9260954443803787264L
sbag1
(g2
g3
Ntp1997
Rp1998
(dp1999
g7
L965177695140839424L
sbag1
(g2
g3
Ntp2000
Rp2001
(dp2002
g7
L5081186279580762112L
sbag1
(g2
g3
Ntp2003
Rp2004
(dp2005
g7
L5083438079394447360L
sbag1
(g2
g3
Ntp2006
Rp2007
(dp2008
g7
L5221382808215224320L
sbag1
(g2
g3
Ntp2009
Rp2010
(dp2011
g7
L5221388305773363200L
sbag1
(g2
g3
Ntp2012
Rp2013
(dp2014
g7
L5221368514564063232L
sbag1
(g2
g3
Ntp2015
Rp2016
(dp2017
g7
L9260949839598845952L
sbag1
(g2
g3
Ntp2018
Rp2019
(dp2020
g7
L7715409431546036224L
sbag1
(g2
g3
Ntp2021
Rp2022
(dp2023
g7
L6090674293320974336L
sbag1
(g2
g3
Ntp2024
Rp2025
(dp2026
g7
L7715721692848324608L
sbag1
(g2
g3
Ntp2027
Rp2028
(dp2029
g7
L3747276364948963328L
sbag1
(g2
g3
Ntp2030
Rp2031
(dp2032
g7
L9813062113063600128L
sbag1
(g2
g3
Ntp2033
Rp2034
(dp2035
g7
L10934739895255564288L
sbag1
(g2
g3
Ntp2036
Rp2037
(dp2038
g7
L9782944290555559936L
sbag1
(g2
g3
Ntp2039
Rp2040
(dp2041
g7
L9785196090369245184L
sbag1
(g2
g3
Ntp2042
Rp2043
(dp2044
g7
L9926598783259377664L
sbag1
(g2
g3
Ntp2045
Rp2046
(dp2047
g7
L5178295146545938432L
sbag1
(g2
g3
Ntp2048
Rp2049
(dp2050
g7
L5177732196592517120L
sbag1
(g2
g3
Ntp2051
Rp2052
(dp2053
g7
L6090684188925624320L
sbag1
(g2
g3
Ntp2054
Rp2055
(dp2056
g7
L7800234554605699072L
sbag1
(g2
g3
Ntp2057
Rp2058
(dp2059
g7
L7836263351624663040L
sbag1
(g2
g3
Ntp2060
Rp2061
(dp2062
g7
L1381408816951721984L
sbag1
(g2
g3
Ntp2063
Rp2064
(dp2065
g7
L9935802795095490560L
sbag1
(g2
g3
Ntp2066
Rp2067
(dp2068
g7
L5221394902843129856L
sbag1
(g2
g3
Ntp2069
Rp2070
(dp2071
g7
L9935873163839668224L
sbag1
(g2
g3
Ntp2072
Rp2073
(dp2074
g7
L5154048716130222080L
sbag1
(g2
g3
Ntp2075
Rp2076
(dp2077
g7
L5221367140174528512L
sbag1
(g2
g3
Ntp2078
Rp2079
(dp2080
g7
L1381268079463366656L
sbag1
(g2
g3
Ntp2081
Rp2082
(dp2083
g7
L5602477936448897024L
sbag1
(g2
g3
Ntp2084
Rp2085
(dp2086
g7
L9261934108664135680L
sbag1
(g2
g3
Ntp2087
Rp2088
(dp2089
g7
L944911496817672192L
sbag1
(g2
g3
Ntp2090
Rp2091
(dp2092
g7
L9923594917492293632L
sbag1
(g2
g3
Ntp2093
Rp2094
(dp2095
g7
L9923597116515549184L
sbag1
(g2
g3
Ntp2096
Rp2097
(dp2098
g7
L9923599315538804736L
sbag1
(g2
g3
Ntp2099
Rp2100
(dp2101
g7
L5151818906549092352L
sbag1
(g2
g3
Ntp2102
Rp2103
(dp2104
g7
L5180943870057250816L
sbag1
(g2
g3
Ntp2105
Rp2106
(dp2107
g7
L7876795748270997504L
sbag1
(g2
g3
Ntp2108
Rp2109
(dp2110
g7
L9811975795575357440L
sbag1
(g2
g3
Ntp2111
Rp2112
(dp2113
g7
L9811984591668379648L
sbag1
(g2
g3
Ntp2114
Rp2115
(dp2116
g7
L11240984669916758016L
sbag1
(g2
g3
Ntp2117
Rp2118
(dp2119
g7
L9263640550710444032L
sbag1
(g2
g3
Ntp2120
Rp2121
(dp2122
g7
L9263675735082532864L
sbag1
(g2
g3
Ntp2123
Rp2124
(dp2125
g7
L9263710919454621696L
sbag1
(g2
g3
Ntp2126
Rp2127
(dp2128
g7
L7693274063455649792L
sbag1
(g2
g3
Ntp2129
Rp2130
(dp2131
g7
L5180959263220039680L
sbag1
(g2
g3
Ntp2132
Rp2133
(dp2134
g7
L9285789112940363776L
sbag1
(g2
g3
Ntp2135
Rp2136
(dp2137
g7
L3593591027664945152L
sbag1
(g2
g3
Ntp2138
Rp2139
(dp2140
g7
L8358680908399640576L
sbag1
(g2
g3
Ntp2141
Rp2142
(dp2143
g7
L1372471986441158656L
sbag1
(g2
g3
Ntp2144
Rp2145
(dp2146
g7
L18014398509481984L
sbag1
(g2
g3
Ntp2147
Rp2148
(dp2149
g7
L126100789566373888L
sbag1
(g2
g3
Ntp2150
Rp2151
(dp2152
g7
L90071992547409920L
sbag1
(g2
g3
Ntp2153
Rp2154
(dp2155
g7
L9803984545064681472L
sbag1
(g2
g3
Ntp2156
Rp2157
(dp2158
g7
L9804125282553036800L
sbag1
(g2
g3
Ntp2159
Rp2160
(dp2161
g7
L58546795155816448L
sbag1
(g2
g3
Ntp2162
Rp2163
(dp2164
g7
L9866260883661914112L
sbag1
(g2
g3
Ntp2165
Rp2166
(dp2167
g7
L5180949436334866432L
sbag1
(g2
g3
Ntp2168
Rp2169
(dp2170
g7
L9857253684407173120L
sbag1
(g2
g3
Ntp2171
Rp2172
(dp2173
g7
L5180949711212773376L
sbag1
(g2
g3
Ntp2174
Rp2175
(dp2176
g7
L8863084066665136128L
sbag1
(g2
g3
Ntp2177
Rp2178
(dp2179
g7
L5087941679021817856L
sbag1
(g2
g3
Ntp2180
Rp2181
(dp2182
g7
L1343268957607428096L
sbag1
(g2
g3
Ntp2183
Rp2184
(dp2185
g7
L9926595965760831488L
sbag1
(g2
g3
Ntp2186
Rp2187
(dp2188
g7
L10722859606536617984L
sbag1
(g2
g3
Ntp2189
Rp2190
(dp2191
g7
L6120391893596504064L
sbag1
(g2
g3
Ntp2192
Rp2193
(dp2194
g7
L4737786807993761792L
sbag1
(g2
g3
Ntp2195
Rp2196
(dp2197
g7
L5167036147477512192L
sbag1
(g2
g3
Ntp2198
Rp2199
(dp2200
g7
L5167599097430933504L
sbag1
(g2
g3
Ntp2201
Rp2202
(dp2203
g7
L1945555039024054272L
sbag1
(g2
g3
Ntp2204
Rp2205
(dp2206
g7
L6093581402064814080L
sbag1
(g2
g3
Ntp2207
Rp2208
(dp2209
g7
L5522539043063070720L
sbag1
(g2
g3
Ntp2210
Rp2211
(dp2212
g7
L6093722139553169408L
sbag1
(g2
g3
Ntp2213
Rp2214
(dp2215
g7
L5179983996406202368L
sbag1
(g2
g3
Ntp2216
Rp2217
(dp2218
g7
L3765778946621177856L
sbag1
(g2
g3
Ntp2219
Rp2220
(dp2221
g7
L5180954865173528576L
sbag1
(g2
g3
Ntp2222
Rp2223
(dp2224
g7
L5180957064196784128L
sbag1
(g2
g3
Ntp2225
Rp2226
(dp2227
g7
L5180546946359623680L
sbag1
(g2
g3
Ntp2228
Rp2229
(dp2230
g7
L9926594041615482880L
sbag1
(g2
g3
Ntp2231
Rp2232
(dp2233
g7
L9926594179054436352L
sbag1
(g2
g3
Ntp2234
Rp2235
(dp2236
g7
L9263732909687177216L
sbag1
(g2
g3
Ntp2237
Rp2238
(dp2239
g7
L9263741705780199424L
sbag1
(g2
g3
Ntp2240
Rp2241
(dp2242
g7
L5181180265057222656L
sbag1
(g2
g3
Ntp2243
Rp2244
(dp2245
g7
L9803813021250748416L
sbag1
(g2
g3
Ntp2246
Rp2247
(dp2248
g7
L1315051091192184832L
sbag1
(g2
g3
Ntp2249
Rp2250
(dp2251
g7
L9803830613436792832L
sbag1
(g2
g3
Ntp2252
Rp2253
(dp2254
g7
L9803839409529815040L
sbag1
(g2
g3
Ntp2255
Rp2256
(dp2257
g7
L9755922692791336960L
sbag1
(g2
g3
Ntp2258
Rp2259
(dp2260
g7
L9760426292418707456L
sbag1
(g2
g3
Ntp2261
Rp2262
(dp2263
g7
L7696933238152888320L
sbag1
(g2
g3
Ntp2264
Rp2265
(dp2266
g7
L7697496188106309632L
sbag1
(g2
g3
Ntp2267
Rp2268
(dp2269
g7
L7698059138059730944L
sbag1
(g2
g3
Ntp2270
Rp2271
(dp2272
g7
L1353613163001544704L
sbag1
(g2
g3
Ntp2273
Rp2274
(dp2275
g7
L1354176112954966016L
sbag1
(g2
g3
Ntp2276
Rp2277
(dp2278
g7
L9651214001454972928L
sbag1
(g2
g3
Ntp2279
Rp2280
(dp2281
g7
L6924429562617004032L
sbag1
(g2
g3
Ntp2282
Rp2283
(dp2284
g7
L955449216258277376L
sbag1
(g2
g3
Ntp2285
Rp2286
(dp2287
g7
L6924447154803048448L
sbag1
(g2
g3
Ntp2288
Rp2289
(dp2290
g7
L7421932185906577408L
sbag1
(g2
g3
Ntp2291
Rp2292
(dp2293
g7
L10804135506061819904L
sbag1
(g2
g3
Ntp2294
Rp2295
(dp2296
g7
L10795128306807078912L
sbag1
(g2
g3
Ntp2297
Rp2298
(dp2299
g7
L1386827210253402112L
sbag1
(g2
g3
Ntp2300
Rp2301
(dp2302
g7
L7732680560195141632L
sbag1
(g2
g3
Ntp2303
Rp2304
(dp2305
g7
L5139733074736578560L
sbag1
(g2
g3
Ntp2306
Rp2307
(dp2308
g7
L5066831055768518656L
sbag1
(g2
g3
Ntp2309
Rp2310
(dp2311
g7
L9930155703375233024L
sbag1
(g2
g3
Ntp2312
Rp2313
(dp2314
g7
L5067956955675361280L
sbag1
(g2
g3
Ntp2315
Rp2316
(dp2317
g7
L5222926522540621824L
sbag1
(g2
g3
Ntp2318
Rp2319
(dp2320
g7
L5237686366631886848L
sbag1
(g2
g3
Ntp2321
Rp2322
(dp2323
g7
L5222996891284799488L
sbag1
(g2
g3
Ntp2324
Rp2325
(dp2326
g7
L6924435060175142912L
sbag1
(g2
g3
Ntp2327
Rp2328
(dp2329
g7
L5217701643285430272L
sbag1
(g2
g3
Ntp2330
Rp2331
(dp2332
g7
L9241386435364257792L
sbag1
(g2
g3
Ntp2333
Rp2334
(dp2335
g7
L5151713353432825856L
sbag1
(g2
g3
Ntp2336
Rp2337
(dp2338
g7
L6089711121135042560L
sbag1
(g2
g3
Ntp2339
Rp2340
(dp2341
g7
L6095340620669255680L
sbag1
(g2
g3
Ntp2342
Rp2343
(dp2344
g7
L5048535182282326016L
sbag1
(g2
g3
Ntp2345
Rp2346
(dp2347
g7
L1343356918537650176L
sbag1
(g2
g3
Ntp2348
Rp2349
(dp2350
g7
L9918052279376674816L
sbag1
(g2
g3
Ntp2351
Rp2352
(dp2353
g7
L9817002762737549312L
sbag1
(g2
g3
Ntp2354
Rp2355
(dp2356
g7
L1343427287281827840L
sbag1
(g2
g3
Ntp2357
Rp2358
(dp2359
g7
L5154580879758065664L
sbag1
(g2
g3
Ntp2360
Rp2361
(dp2362
g7
L4291930444884082688L
sbag1
(g2
g3
Ntp2363
Rp2364
(dp2365
g7
L5154862354734776320L
sbag1
(g2
g3
Ntp2366
Rp2367
(dp2368
g7
L5180946069080506368L
sbag1
(g2
g3
Ntp2369
Rp2370
(dp2371
g7
L9811990089226518528L
sbag1
(g2
g3
Ntp2372
Rp2373
(dp2374
g7
L9811992288249774080L
sbag1
(g2
g3
Ntp2375
Rp2376
(dp2377
g7
L9923558633608577024L
sbag1
(g2
g3
Ntp2378
Rp2379
(dp2380
g7
L9935895154072223744L
sbag1
(g2
g3
Ntp2381
Rp2382
(dp2383
g7
L9935903950165245952L
sbag1
(g2
g3
Ntp2384
Rp2385
(dp2386
g7
L5543931141293080576L
sbag1
(g2
g3
Ntp2387
Rp2388
(dp2389
g7
L5221366057842769920L
sbag1
(g2
g3
Ntp2390
Rp2391
(dp2392
g7
L9687242798473936896L
sbag1
(g2
g3
Ntp2393
Rp2394
(dp2395
g7
L5221366126562246656L
sbag1
(g2
g3
Ntp2396
Rp2397
(dp2398
g7
L9923600689928339456L
sbag1
(g2
g3
Ntp2399
Rp2400
(dp2401
g7
L9923601239684153344L
sbag1
(g2
g3
Ntp2402
Rp2403
(dp2404
g7
L4395513236313604096L
sbag1
(g2
g3
Ntp2405
Rp2406
(dp2407
g7
L5171835515732754432L
sbag1
(g2
g3
Ntp2408
Rp2409
(dp2410
g7
L9804248427855347712L
sbag1
(g2
g3
Ntp2411
Rp2412
(dp2413
g7
L9815313912877285376L
sbag1
(g2
g3
Ntp2414
Rp2415
(dp2416
g7
L10787247007459180544L
sbag1
(g2
g3
Ntp2417
Rp2418
(dp2419
g7
L9633199602945490944L
sbag1
(g2
g3
Ntp2420
Rp2421
(dp2422
g7
L6093423072390414336L
sbag1
(g2
g3
Ntp2423
Rp2424
(dp2425
g7
L5221389680162897920L
sbag1
(g2
g3
Ntp2426
Rp2427
(dp2428
g7
L5175761871755542528L
sbag1
(g2
g3
Ntp2429
Rp2430
(dp2431
g7
L5221390229918711808L
sbag1
(g2
g3
Ntp2432
Rp2433
(dp2434
g7
L955044595979255808L
sbag1
(g2
g3
Ntp2435
Rp2436
(dp2437
g7
L9926595553443971072L
sbag1
(g2
g3
Ntp2438
Rp2439
(dp2440
g7
L5534079517108207616L
sbag1
(g2
g3
Ntp2441
Rp2442
(dp2443
g7
L9926595828321878016L
sbag1
(g2
g3
Ntp2444
Rp2445
(dp2446
g7
L956170495886098432L
sbag1
(g2
g3
Ntp2447
Rp2448
(dp2449
g7
L9758455967581732864L
sbag1
(g2
g3
Ntp2450
Rp2451
(dp2452
g7
L1567252670324932608L
sbag1
(g2
g3
Ntp2453
Rp2454
(dp2455
g7
L3768386988202262528L
sbag1
(g2
g3
Ntp2456
Rp2457
(dp2458
g7
L3770638788015947776L
sbag1
(g2
g3
Ntp2459
Rp2460
(dp2461
g7
L5226409775377416192L
sbag1
(g2
g3
Ntp2462
Rp2463
(dp2464
g7
L5181321002545577984L
sbag1
(g2
g3
Ntp2465
Rp2466
(dp2467
g7
L1392738184764325888L
sbag1
(g2
g3
Ntp2468
Rp2469
(dp2470
g7
L9263755999431360512L
sbag1
(g2
g3
Ntp2471
Rp2472
(dp2473
g7
L9263758198454616064L
sbag1
(g2
g3
Ntp2474
Rp2475
(dp2476
g7
L9263760397477871616L
sbag1
(g2
g3
Ntp2477
Rp2478
(dp2479
g7
L9803818518808887296L
sbag1
(g2
g3
Ntp2480
Rp2481
(dp2482
g7
L9803820717832142848L
sbag1
(g2
g3
Ntp2483
Rp2484
(dp2485
g7
L9260950870390996992L
sbag1
(g2
g3
Ntp2486
Rp2487
(dp2488
g7
L10705056314259668992L
sbag1
(g2
g3
Ntp2489
Rp2490
(dp2491
g7
L9814188012970442752L
sbag1
(g2
g3
Ntp2492
Rp2493
(dp2494
g7
L9811725106924224512L
sbag1
(g2
g3
Ntp2495
Rp2496
(dp2497
g7
L3591902177804681216L
sbag1
(g2
g3
Ntp2498
Rp2499
(dp2500
g7
L1382376387184164864L
sbag1
(g2
g3
Ntp2501
Rp2502
(dp2503
g7
L3593028077711523840L
sbag1
(g2
g3
Ntp2504
Rp2505
(dp2506
g7
L5171698076779282432L
sbag1
(g2
g3
Ntp2507
Rp2508
(dp2509
g7
L5494391545392005120L
sbag1
(g2
g3
Ntp2510
Rp2511
(dp2512
g7
L6925128852012269568L
sbag1
(g2
g3
Ntp2513
Rp2514
(dp2515
g7
L5949255107756425216L
sbag1
(g2
g3
Ntp2516
Rp2517
(dp2518
g7
L6925691801965690880L
sbag1
(g2
g3
Ntp2519
Rp2520
(dp2521
g7
L5967269506265907200L
sbag1
(g2
g3
Ntp2522
Rp2523
(dp2524
g7
L9927780758259236864L
sbag1
(g2
g3
Ntp2525
Rp2526
(dp2527
g7
L9927815942631325696L
sbag1
(g2
g3
Ntp2528
Rp2529
(dp2530
g7
L9259682308850450432L
sbag1
(g2
g3
Ntp2531
Rp2532
(dp2533
g7
L5171825620128104448L
sbag1
(g2
g3
Ntp2534
Rp2535
(dp2536
g7
L9260245258803871744L
sbag1
(g2
g3
Ntp2537
Rp2538
(dp2539
g7
L5171843212314148864L
sbag1
(g2
g3
Ntp2540
Rp2541
(dp2542
g7
L5216927587099475968L
sbag1
(g2
g3
Ntp2543
Rp2544
(dp2545
g7
L5217068324587831296L
sbag1
(g2
g3
Ntp2546
Rp2547
(dp2548
g7
L9261371158710714368L
sbag1
(g2
g3
Ntp2549
Rp2550
(dp2551
g7
L5145644049247502336L
sbag1
(g2
g3
Ntp2552
Rp2553
(dp2554
g7
L5146206999200923648L
sbag1
(g2
g3
Ntp2555
Rp2556
(dp2557
g7
L5147332899107766272L
sbag1
(g2
g3
Ntp2558
Rp2559
(dp2560
g7
L3592676233990635520L
sbag1
(g2
g3
Ntp2561
Rp2562
(dp2563
g7
L3592394759013924864L
sbag1
(g2
g3
Ntp2564
Rp2565
(dp2566
g7
L3592535496502280192L
sbag1
(g2
g3
Ntp2567
Rp2568
(dp2569
g7
L6093374693878792192L
sbag1
(g2
g3
Ntp2570
Rp2571
(dp2572
g7
L6093383489971814400L
sbag1
(g2
g3
Ntp2573
Rp2574
(dp2575
g7
L7998392938210000896L
sbag1
(g2
g3
Ntp2576
Rp2577
(dp2578
g7
L5221365490907086848L
sbag1
(g2
g3
Ntp2579
Rp2580
(dp2581
g7
L3592236429339525120L
sbag1
(g2
g3
Ntp2582
Rp2583
(dp2584
g7
L3592271613711613952L
sbag1
(g2
g3
Ntp2585
Rp2586
(dp2587
g7
L3592306798083702784L
sbag1
(g2
g3
Ntp2588
Rp2589
(dp2590
g7
L9811995311906750464L
sbag1
(g2
g3
Ntp2591
Rp2592
(dp2593
g7
L1386264260299980800L
sbag1
(g2
g3
Ntp2594
Rp2595
(dp2596
g7
L5226304222261149696L
sbag1
(g2
g3
Ntp2597
Rp2598
(dp2599
g7
L5226339406633238528L
sbag1
(g2
g3
Ntp2600
Rp2601
(dp2602
g7
L7908320945662590976L
sbag1
(g2
g3
Ntp2603
Rp2604
(dp2605
g7
L10722525355001774080L
sbag1
(g2
g3
Ntp2606
Rp2607
(dp2608
g7
L10722560539373862912L
sbag1
(g2
g3
Ntp2609
Rp2610
(dp2611
g7
L9675702324428800000L
sbag1
(g2
g3
Ntp2612
Rp2613
(dp2614
g7
L5117215076599726080L
sbag1
(g2
g3
Ntp2615
Rp2616
(dp2617
g7
L3777675662433714176L
sbag1
(g2
g3
Ntp2618
Rp2619
(dp2620
g7
L6178938688752320512L
sbag1
(g2
g3
Ntp2621
Rp2622
(dp2623
g7
L10898711098236600320L
sbag1
(g2
g3
Ntp2624
Rp2625
(dp2626
g7
L9278202482708709376L
sbag1
(g2
g3
Ntp2627
Rp2628
(dp2629
g7
L9278211278801731584L
sbag1
(g2
g3
Ntp2630
Rp2631
(dp2632
g7
L3775142387643318272L
sbag1
(g2
g3
Ntp2633
Rp2634
(dp2635
g7
L3571354504504803328L
sbag1
(g2
g3
Ntp2636
Rp2637
(dp2638
g7
L3779645987270688768L
sbag1
(g2
g3
Ntp2639
Rp2640
(dp2641
g7
L9278185990034292736L
sbag1
(g2
g3
Ntp2642
Rp2643
(dp2644
g7
L9349472826421149696L
sbag1
(g2
g3
Ntp2645
Rp2646
(dp2647
g7
L7698692456757329920L
sbag1
(g2
g3
Ntp2648
Rp2649
(dp2650
g7
L7698833194245685248L
sbag1
(g2
g3
Ntp2651
Rp2652
(dp2653
g7
L955373349955960832L
sbag1
(g2
g3
Ntp2654
Rp2655
(dp2656
g7
L955375548979216384L
sbag1
(g2
g3
Ntp2657
Rp2658
(dp2659
g7
L869194728082505728L
sbag1
(g2
g3
Ntp2660
Rp2661
(dp2662
g7
L7715492994429747200L
sbag1
(g2
g3
Ntp2663
Rp2664
(dp2665
g7
L878201927337246720L
sbag1
(g2
g3
Ntp2666
Rp2667
(dp2668
g7
L9260597102524760064L
sbag1
(g2
g3
Ntp2669
Rp2670
(dp2671
g7
L5118622451483279360L
sbag1
(g2
g3
Ntp2672
Rp2673
(dp2674
g7
L5119748351390121984L
sbag1
(g2
g3
Ntp2675
Rp2676
(dp2677
g7
L5120311301343543296L
sbag1
(g2
g3
Ntp2678
Rp2679
(dp2680
g7
L9260737840013115392L
sbag1
(g2
g3
Ntp2681
Rp2682
(dp2683
g7
L5232056867097673728L
sbag1
(g2
g3
Ntp2684
Rp2685
(dp2686
g7
L4629700416936869888L
sbag1
(g2
g3
Ntp2687
Rp2688
(dp2689
g7
L5163472630291890176L
sbag1
(g2
g3
Ntp2690
Rp2691
(dp2692
g7
L9313444029402185728L
sbag1
(g2
g3
Ntp2693
Rp2694
(dp2695
g7
L5180950192249110528L
sbag1
(g2
g3
Ntp2696
Rp2697
(dp2698
g7
L5180950742004924416L
sbag1
(g2
g3
Ntp2699
Rp2700
(dp2701
g7
L960111145560047616L
sbag1
(g2
g3
Ntp2702
Rp2703
(dp2704
g7
L1355302012861808640L
sbag1
(g2
g3
Ntp2705
Rp2706
(dp2707
g7
L957859345746362368L
sbag1
(g2
g3
Ntp2708
Rp2709
(dp2710
g7
L958422295699783680L
sbag1
(g2
g3
Ntp2711
Rp2712
(dp2713
g7
L9867668258545467392L
sbag1
(g2
g3
Ntp2714
Rp2715
(dp2716
g7
L9868231208498888704L
sbag1
(g2
g3
Ntp2717
Rp2718
(dp2719
g7
L5154158667292999680L
sbag1
(g2
g3
Ntp2720
Rp2721
(dp2722
g7
L9281637357033881600L
sbag1
(g2
g3
Ntp2723
Rp2724
(dp2725
g7
L5154031123944177664L
sbag1
(g2
g3
Ntp2726
Rp2727
(dp2728
g7
L5154039920037199872L
sbag1
(g2
g3
Ntp2729
Rp2730
(dp2731
g7
L3859584880656515072L
sbag1
(g2
g3
Ntp2732
Rp2733
(dp2734
g7
L4269412446747230208L
sbag1
(g2
g3
Ntp2735
Rp2736
(dp2737
g7
L3877599279165997056L
sbag1
(g2
g3
Ntp2738
Rp2739
(dp2740
g7
L5069082855582203904L
sbag1
(g2
g3
Ntp2741
Rp2742
(dp2743
g7
L5069645805535625216L
sbag1
(g2
g3
Ntp2744
Rp2745
(dp2746
g7
L6089148171181621248L
sbag1
(g2
g3
Ntp2747
Rp2748
(dp2749
g7
L5218264593238851584L
sbag1
(g2
g3
Ntp2750
Rp2751
(dp2752
g7
L5180881197894467584L
sbag1
(g2
g3
Ntp2753
Rp2754
(dp2755
g7
L4557642822898941952L
sbag1
(g2
g3
Ntp2756
Rp2757
(dp2758
g7
L9278181591987781632L
sbag1
(g2
g3
Ntp2759
Rp2760
(dp2761
g7
L9278183791011037184L
sbag1
(g2
g3
Ntp2762
Rp2763
(dp2764
g7
L5180916382266556416L
sbag1
(g2
g3
Ntp2765
Rp2766
(dp2767
g7
L6008927802819084288L
sbag1
(g2
g3
Ntp2768
Rp2769
(dp2770
g7
L6011179602632769536L
sbag1
(g2
g3
Ntp2771
Rp2772
(dp2773
g7
L9260950320635183104L
sbag1
(g2
g3
Ntp2774
Rp2775
(dp2776
g7
L9811993662639308800L
sbag1
(g2
g3
Ntp2777
Rp2778
(dp2779
g7
L6015683202260140032L
sbag1
(g2
g3
Ntp2780
Rp2781
(dp2782
g7
L1343382207305089024L
sbag1
(g2
g3
Ntp2783
Rp2784
(dp2785
g7
L5151735343665381376L
sbag1
(g2
g3
Ntp2786
Rp2787
(dp2788
g7
L6924636270803025920L
sbag1
(g2
g3
Ntp2789
Rp2790
(dp2791
g7
L5151906867479314432L
sbag1
(g2
g3
Ntp2792
Rp2793
(dp2794
g7
L9272911632755851264L
sbag1
(g2
g3
Ntp2795
Rp2796
(dp2797
g7
L5171833316709498880L
sbag1
(g2
g3
Ntp2798
Rp2799
(dp2800
g7
L216172782113783808L
sbag1
(g2
g3
Ntp2801
Rp2802
(dp2803
g7
L5171837714756009984L
sbag1
(g2
g3
Ntp2804
Rp2805
(dp2806
g7
L360287970189639680L
sbag1
(g2
g3
Ntp2807
Rp2808
(dp2809
g7
L5223964461517242368L
sbag1
(g2
g3
Ntp2810
Rp2811
(dp2812
g7
L955377748002471936L
sbag1
(g2
g3
Ntp2813
Rp2814
(dp2815
g7
L5067323636977762304L
sbag1
(g2
g3
Ntp2816
Rp2817
(dp2818
g7
L5067464374466117632L
sbag1
(g2
g3
Ntp2819
Rp2820
(dp2821
g7
L5067605111954472960L
sbag1
(g2
g3
Ntp2822
Rp2823
(dp2824
g7
L5255700765141368832L
sbag1
(g2
g3
Ntp2825
Rp2826
(dp2827
g7
L9281074407080460288L
sbag1
(g2
g3
Ntp2828
Rp2829
(dp2830
g7
L7698358205222486016L
sbag1
(g2
g3
Ntp2831
Rp2832
(dp2833
g7
L955818652165210112L
sbag1
(g2
g3
Ntp2834
Rp2835
(dp2836
g7
L9660221200709713920L
sbag1
(g2
g3
Ntp2837
Rp2838
(dp2839
g7
L7698463758338752512L
sbag1
(g2
g3
Ntp2840
Rp2841
(dp2842
g7
L9668102500057612288L
sbag1
(g2
g3
Ntp2843
Rp2844
(dp2845
g7
L9670354299871297536L
sbag1
(g2
g3
Ntp2846
Rp2847
(dp2848
g7
L948289196538200064L
sbag1
(g2
g3
Ntp2849
Rp2850
(dp2851
g7
L948852146491621376L
sbag1
(g2
g3
Ntp2852
Rp2853
(dp2854
g7
L5221008974261780480L
sbag1
(g2
g3
Ntp2855
Rp2856
(dp2857
g7
L5129599975574994944L
sbag1
(g2
g3
Ntp2858
Rp2859
(dp2860
g7
L5221149711750135808L
sbag1
(g2
g3
Ntp2861
Rp2862
(dp2863
g7
L965740645094260736L
sbag1
(g2
g3
Ntp2864
Rp2865
(dp2866
g7
L5532742510968832000L
sbag1
(g2
g3
Ntp2867
Rp2868
(dp2869
g7
L5532883248457187328L
sbag1
(g2
g3
Ntp2870
Rp2871
(dp2872
g7
L5225019992679907328L
sbag1
(g2
g3
Ntp2873
Rp2874
(dp2875
g7
L5533164723433897984L
sbag1
(g2
g3
Ntp2876
Rp2877
(dp2878
g7
L9803825115878653952L
sbag1
(g2
g3
Ntp2879
Rp2880
(dp2881
g7
L9804318796599525376L
sbag1
(g2
g3
Ntp2882
Rp2883
(dp2884
g7
L10719693013048623104L
sbag1
(g2
g3
Ntp2885
Rp2886
(dp2887
g7
L5163468232245379072L
sbag1
(g2
g3
Ntp2888
Rp2889
(dp2890
g7
L5163470431268634624L
sbag1
(g2
g3
Ntp2891
Rp2892
(dp2893
g7
L3592188050827902976L
sbag1
(g2
g3
Ntp2894
Rp2895
(dp2896
g7
L3592196846920925184L
sbag1
(g2
g3
Ntp2897
Rp2898
(dp2899
g7
L10724196612675993600L
sbag1
(g2
g3
Ntp2900
Rp2901
(dp2902
g7
L3592205643013947392L
sbag1
(g2
g3
Ntp2903
Rp2904
(dp2905
g7
L5154021228339527680L
sbag1
(g2
g3
Ntp2906
Rp2907
(dp2908
g7
L9926514120864038912L
sbag1
(g2
g3
Ntp2909
Rp2910
(dp2911
g7
L6093388987529953280L
sbag1
(g2
g3
Ntp2912
Rp2913
(dp2914
g7
L6093391186553208832L
sbag1
(g2
g3
Ntp2915
Rp2916
(dp2917
g7
L3580361703759544320L
sbag1
(g2
g3
Ntp2918
Rp2919
(dp2920
g7
L37154696925806592L
sbag1
(g2
g3
Ntp2921
Rp2922
(dp2923
g7
L39406496739491840L
sbag1
(g2
g3
Ntp2924
Rp2925
(dp2926
g7
L6091048127274418176L
sbag1
(g2
g3
Ntp2927
Rp2928
(dp2929
g7
L41658296553177088L
sbag1
(g2
g3
Ntp2930
Rp2931
(dp2932
g7
L7716073536569212928L
sbag1
(g2
g3
Ntp2933
Rp2934
(dp2935
g7
L9929592753421811712L
sbag1
(g2
g3
Ntp2936
Rp2937
(dp2938
g7
L7715414929104175104L
sbag1
(g2
g3
Ntp2939
Rp2940
(dp2941
g7
L7715417128127430656L
sbag1
(g2
g3
Ntp2942
Rp2943
(dp2944
g7
L5229805067283988480L
sbag1
(g2
g3
Ntp2945
Rp2946
(dp2947
g7
L7715419327150686208L
sbag1
(g2
g3
Ntp2948
Rp2949
(dp2950
g7
L5171610115849060352L
sbag1
(g2
g3
Ntp2951
Rp2952
(dp2953
g7
L5217226654262231040L
sbag1
(g2
g3
Ntp2954
Rp2955
(dp2956
g7
L10722582529606418432L
sbag1
(g2
g3
Ntp2957
Rp2958
(dp2959
g7
L10722591325699440640L
sbag1
(g2
g3
Ntp2960
Rp2961
(dp2962
g7
L1343387704863227904L
sbag1
(g2
g3
Ntp2963
Rp2964
(dp2965
g7
L9863164658918096896L
sbag1
(g2
g3
Ntp2966
Rp2967
(dp2968
g7
L9863727608871518208L
sbag1
(g2
g3
Ntp2969
Rp2970
(dp2971
g7
L1343396500956250112L
sbag1
(g2
g3
Ntp2972
Rp2973
(dp2974
g7
L1343377328222240768L
sbag1
(g2
g3
Ntp2975
Rp2976
(dp2977
g7
L1343377465661194240L
sbag1
(g2
g3
Ntp2978
Rp2979
(dp2980
g7
L10016005571271983104L
sbag1
(g2
g3
Ntp2981
Rp2982
(dp2983
g7
L3765290763458445312L
sbag1
(g2
g3
Ntp2984
Rp2985
(dp2986
g7
L3766979613318709248L
sbag1
(g2
g3
Ntp2987
Rp2988
(dp2989
g7
L3766416663365287936L
sbag1
(g2
g3
Ntp2990
Rp2991
(dp2992
g7
L1382341202812076032L
sbag1
(g2
g3
Ntp2993
Rp2994
(dp2995
g7
L5209538868960821248L
sbag1
(g2
g3
Ntp2996
Rp2997
(dp2998
g7
L5211790668774506496L
sbag1
(g2
g3
Ntp2999
Rp3000
(dp3001
g7
L3765642607179333632L
sbag1
(g2
g3
Ntp3002
Rp3003
(dp3004
g7
L3766064819644399616L
sbag1
(g2
g3
Ntp3005
Rp3006
(dp3007
g7
L3765924082156044288L
sbag1
(g2
g3
Ntp3008
Rp3009
(dp3010
g7
L3765730568109555712L
sbag1
(g2
g3
Ntp3011
Rp3012
(dp3013
g7
L955371975566426112L
sbag1
(g2
g3
Ntp3014
Rp3015
(dp3016
g7
L3765800936853733376L
sbag1
(g2
g3
Ntp3017
Rp3018
(dp3019
g7
L9935714834165268480L
sbag1
(g2
g3
Ntp3020
Rp3021
(dp3022
g7
L3754876189320151040L
sbag1
(g2
g3
Ntp3023
Rp3024
(dp3025
g7
L955371425810612224L
sbag1
(g2
g3
Ntp3026
Rp3027
(dp3028
g7
L5221994136680267776L
sbag1
(g2
g3
Ntp3029
Rp3030
(dp3031
g7
L10784995207645495296L
sbag1
(g2
g3
Ntp3032
Rp3033
(dp3034
g7
L9759018917535154176L
sbag1
(g2
g3
Ntp3035
Rp3036
(dp3037
g7
L3765752558342111232L
sbag1
(g2
g3
Ntp3038
Rp3039
(dp3040
g7
L6924441657244909568L
sbag1
(g2
g3
Ntp3041
Rp3042
(dp3043
g7
L3765770150528155648L
sbag1
(g2
g3
Ntp3044
Rp3045
(dp3046
g7
L3585991203293757440L
sbag1
(g2
g3
Ntp3047
Rp3048
(dp3049
g7
L1489565576752791552L
sbag1
(g2
g3
Ntp3050
Rp3051
(dp3052
g7
L1491817376566476800L
sbag1
(g2
g3
Ntp3053
Rp3054
(dp3055
g7
L9791951489810300928L
sbag1
(g2
g3
Ntp3056
Rp3057
(dp3058
g7
L3590494802921127936L
sbag1
(g2
g3
Ntp3059
Rp3060
(dp3061
g7
L9794203289623986176L
sbag1
(g2
g3
Ntp3062
Rp3063
(dp3064
g7
L9798706889251356672L
sbag1
(g2
g3
Ntp3065
Rp3066
(dp3067
g7
L3777112712480292864L
sbag1
(g2
g3
Ntp3068
Rp3069
(dp3070
g7
L6924455950896070656L
sbag1
(g2
g3
Ntp3071
Rp3072
(dp3073
g7
L1380933827928522752L
sbag1
(g2
g3
Ntp3074
Rp3075
(dp3076
g7
L792633534417207296L
sbag1
(g2
g3
Ntp3077
Rp3078
(dp3079
g7
L1380969012300611584L
sbag1
(g2
g3
Ntp3080
Rp3081
(dp3082
g7
L1381039381044789248L
sba.