(lp0
ccopy_reg
_reconstructor
p1
(cs2sphere.sphere
CellId
p2
c__builtin__
object
p3
Ntp4
Rp5
(dp6
S'_CellId__id'
p7
L4503599627370496L
sbag1
(g2
g3
Ntp8
Rp9
(dp10
g7
L13510798882111488L
sbag1
(g2
g3
Ntp11
Rp12
(dp13
g7
L22517998136852480L
sbag1
(g2
g3
Ntp14
Rp15
(dp16
g7
L31525197391593472L
sbag1
(g2
g3
Ntp17
Rp18
(dp19
g7
L40532396646334464L
sbag1
(g2
g3
Ntp20
Rp21
(dp22
g7
L49539595901075456L
sbag1
(g2
g3
Ntp23
Rp24
(dp25
g7
L58546795155816448L
sbag1
(g2
g3
Ntp26
Rp27
(dp28
g7
L67553994410557440L
sbag1
(g2
g3
Ntp29
Rp30
(dp31
g7
L76561193665298432L
sbag1
(g2
g3
Ntp32
Rp33
(dp34
g7
L85568392920039424L
sbag1
(g2
g3
Ntp35
Rp36
(dp37
g7
L94575592174780416L
sbag1
(g2
g3
Ntp38
Rp39
(dp40
g7
L103582791429521408L
sbag1
(g2
g3
Ntp41
Rp42
(dp43
g7
L112589990684262400L
sbag1
(g2
g3
Ntp44
Rp45
(dp46
g7
L121597189939003392L
sbag1
(g2
g3
Ntp47
Rp48
(dp49
g7
L130604389193744384L
sbag1
(g2
g3
Ntp50
Rp51
(dp52
g7
L139611588448485376L
sbag1
(g2
g3
Ntp53
Rp54
(dp55
g7
L148618787703226368L
sbag1
(g2
g3
Ntp56
Rp57
(dp58
g7
L157625986957967360L
sbag1
(g2
g3
Ntp59
Rp60
(dp61
g7
L166633186212708352L
sbag1
(g2
g3
Ntp62
Rp63
(dp64
g7
L175640385467449344L
sbag1
(g2
g3
Ntp65
Rp66
(dp67
g7
L184647584722190336L
sbag1
(g2
g3
Ntp68
Rp69
(dp70
g7
L193654783976931328L
sbag1
(g2
g3
Ntp71
Rp72
(dp73
g7
L202661983231672320L
sbag1
(g2
g3
Ntp74
Rp75
(dp76
g7
L211669182486413312L
sbag1
(g2
g3
Ntp77
Rp78
(dp79
g7
L220676381741154304L
sbag1
(g2
g3
Ntp80
Rp81
(dp82
g7
L229683580995895296L
sbag1
(g2
g3
Ntp83
Rp84
(dp85
g7
L238690780250636288L
sbag1
(g2
g3
Ntp86
Rp87
(dp88
g7
L247697979505377280L
sbag1
(g2
g3
Ntp89
Rp90
(dp91
g7
L256705178760118272L
sbag1
(g2
g3
Ntp92
Rp93
(dp94
g7
L265712378014859264L
sbag1
(g2
g3
Ntp95
Rp96
(dp97
g7
L274719577269600256L
sbag1
(g2
g3
Ntp98
Rp99
(dp100
g7
L283726776524341248L
sbag1
(g2
g3
Ntp101
Rp102
(dp103
g7
L292733975779082240L
sbag1
(g2
g3
Ntp104
Rp105
(dp106
g7
L301741175033823232L
sbag1
(g2
g3
Ntp107
Rp108
(dp109
g7
L310748374288564224L
sbag1
(g2
g3
Ntp110
Rp111
(dp112
g7
L319755573543305216L
sbag1
(g2
g3
Ntp113
Rp114
(dp115
g7
L328762772798046208L
sbag1
(g2
g3
Ntp116
Rp117
(dp118
g7
L337769972052787200L
sbag1
(g2
g3
Ntp119
Rp120
(dp121
g7
L346777171307528192L
sbag1
(g2
g3
Ntp122
Rp123
(dp124
g7
L355784370562269184L
sbag1
(g2
g3
Ntp125
Rp126
(dp127
g7
L364791569817010176L
sbag1
(g2
g3
Ntp128
Rp129
(dp130
g7
L373798769071751168L
sbag1
(g2
g3
Ntp131
Rp132
(dp133
g7
L382805968326492160L
sbag1
(g2
g3
Ntp134
Rp135
(dp136
g7
L391813167581233152L
sbag1
(g2
g3
Ntp137
Rp138
(dp139
g7
L400820366835974144L
sbag1
(g2
g3
Ntp140
Rp141
(dp142
g7
L409827566090715136L
sbag1
(g2
g3
Ntp143
Rp144
(dp145
g7
L418834765345456128L
sbag1
(g2
g3
Ntp146
Rp147
(dp148
g7
L427841964600197120L
sbag1
(g2
g3
Ntp149
Rp150
(dp151
g7
L436849163854938112L
sbag1
(g2
g3
Ntp152
Rp153
(dp154
g7
L445856363109679104L
sbag1
(g2
g3
Ntp155
Rp156
(dp157
g7
L454863562364420096L
sbag1
(g2
g3
Ntp158
Rp159
(dp160
g7
L463870761619161088L
sbag1
(g2
g3
Ntp161
Rp162
(dp163
g7
L472877960873902080L
sbag1
(g2
g3
Ntp164
Rp165
(dp166
g7
L481885160128643072L
sbag1
(g2
g3
Ntp167
Rp168
(dp169
g7
L490892359383384064L
sbag1
(g2
g3
Ntp170
Rp171
(dp172
g7
L499899558638125056L
sbag1
(g2
g3
Ntp173
Rp174
(dp175
g7
L508906757892866048L
sbag1
(g2
g3
Ntp176
Rp177
(dp178
g7
L517913957147607040L
sbag1
(g2
g3
Ntp179
Rp180
(dp181
g7
L526921156402348032L
sbag1
(g2
g3
Ntp182
Rp183
(dp184
g7
L535928355657089024L
sbag1
(g2
g3
Ntp185
Rp186
(dp187
g7
L544935554911830016L
sbag1
(g2
g3
Ntp188
Rp189
(dp190
g7
L553942754166571008L
sbag1
(g2
g3
Ntp191
Rp192
(dp193
g7
L562949953421312000L
sbag1
(g2
g3
Ntp194
Rp195
(dp196
g7
L571957152676052992L
sbag1
(g2
g3
Ntp197
Rp198
(dp199
g7
L580964351930793984L
sbag1
(g2
g3
Ntp200
Rp201
(dp202
g7
L589971551185534976L
sbag1
(g2
g3
Ntp203
Rp204
(dp205
g7
L598978750440275968L
sbag1
(g2
g3
Ntp206
Rp207
(dp208
g7
L607985949695016960L
sbag1
(g2
g3
Ntp209
Rp210
(dp211
g7
L616993148949757952L
sbag1
(g2
g3
Ntp212
Rp213
(dp214
g7
L626000348204498944L
sbag1
(g2
g3
Ntp215
Rp216
(dp217
g7
L635007547459239936L
sbag1
(g2
g3
Ntp218
Rp219
(dp220
g7
L644014746713980928L
sbag1
(g2
g3
Ntp221
Rp222
(dp223
g7
L653021945968721920L
sbag1
(g2
g3
Ntp224
Rp225
(dp226
g7
L662029145223462912L
sbag1
(g2
g3
Ntp227
Rp228
(dp229
g7
L671036344478203904L
sbag1
(g2
g3
Ntp230
Rp231
(dp232
g7
L680043543732944896L
sbag1
(g2
g3
Ntp233
Rp234
(dp235
g7
L689050742987685888L
sbag1
(g2
g3
Ntp236
Rp237
(dp238
g7
L698057942242426880L
sbag1
(g2
g3
Ntp239
Rp240
(dp241
g7
L707065141497167872L
sbag1
(g2
g3
Ntp242
Rp243
(dp244
g7
L716072340751908864L
sbag1
(g2
g3
Ntp245
Rp246
(dp247
g7
L725079540006649856L
sbag1
(g2
g3
Ntp248
Rp249
(dp250
g7
L734086739261390848L
sbag1
(g2
g3
Ntp251
Rp252
(dp253
g7
L743093938516131840L
sbag1
(g2
g3
Ntp254
Rp255
(dp256
g7
L752101137770872832L
sbag1
(g2
g3
Ntp257
Rp258
(dp259
g7
L761108337025613824L
sbag1
(g2
g3
Ntp260
Rp261
(dp262
g7
L770115536280354816L
sbag1
(g2
g3
Ntp263
Rp264
(dp265
g7
L779122735535095808L
sbag1
(g2
g3
Ntp266
Rp267
(dp268
g7
L788129934789836800L
sbag1
(g2
g3
Ntp269
Rp270
(dp271
g7
L797137134044577792L
sbag1
(g2
g3
Ntp272
Rp273
(dp274
g7
L806144333299318784L
sbag1
(g2
g3
Ntp275
Rp276
(dp277
g7
L815151532554059776L
sbag1
(g2
g3
Ntp278
Rp279
(dp280
g7
L824158731808800768L
sbag1
(g2
g3
Ntp281
Rp282
(dp283
g7
L833165931063541760L
sbag1
(g2
g3
Ntp284
Rp285
(dp286
g7
L842173130318282752L
sbag1
(g2
g3
Ntp287
Rp288
(dp289
g7
L851180329573023744L
sbag1
(g2
g3
Ntp290
Rp291
(dp292
g7
L860187528827764736L
sbag1
(g2
g3
Ntp293
Rp294
(dp295
g7
L869194728082505728L
sbag1
(g2
g3
Ntp296
Rp297
(dp298
g7
L878201927337246720L
sbag1
(g2
g3
Ntp299
Rp300
(dp301
g7
L887209126591987712L
sbag1
(g2
g3
Ntp302
Rp303
(dp304
g7
L896216325846728704L
sbag1
(g2
g3
Ntp305
Rp306
(dp307
g7
L905223525101469696L
sbag1
(g2
g3
Ntp308
Rp309
(dp310
g7
L914230724356210688L
sbag1
(g2
g3
Ntp311
Rp312
(dp313
g7
L923237923610951680L
sbag1
(g2
g3
Ntp314
Rp315
(dp316
g7
L932245122865692672L
sbag1
(g2
g3
Ntp317
Rp318
(dp319
g7
L941252322120433664L
sbag1
(g2
g3
Ntp320
Rp321
(dp322
g7
L950259521375174656L
sbag1
(g2
g3
Ntp323
Rp324
(dp325
g7
L959266720629915648L
sbag1
(g2
g3
Ntp326
Rp327
(dp328
g7
L968273919884656640L
sbag1
(g2
g3
Ntp329
Rp330
(dp331
g7
L977281119139397632L
sbag1
(g2
g3
Ntp332
Rp333
(dp334
g7
L986288318394138624L
sbag1
(g2
g3
Ntp335
Rp336
(dp337
g7
L995295517648879616L
sbag1
(g2
g3
Ntp338
Rp339
(dp340
g7
L1004302716903620608L
sbag1
(g2
g3
Ntp341
Rp342
(dp343
g7
L1013309916158361600L
sbag1
(g2
g3
Ntp344
Rp345
(dp346
g7
L1022317115413102592L
sbag1
(g2
g3
Ntp347
Rp348
(dp349
g7
L1031324314667843584L
sbag1
(g2
g3
Ntp350
Rp351
(dp352
g7
L1040331513922584576L
sbag1
(g2
g3
Ntp353
Rp354
(dp355
g7
L1049338713177325568L
sbag1
(g2
g3
Ntp356
Rp357
(dp358
g7
L1058345912432066560L
sbag1
(g2
g3
Ntp359
Rp360
(dp361
g7
L1067353111686807552L
sbag1
(g2
g3
Ntp362
Rp363
(dp364
g7
L1076360310941548544L
sbag1
(g2
g3
Ntp365
Rp366
(dp367
g7
L1085367510196289536L
sbag1
(g2
g3
Ntp368
Rp369
(dp370
g7
L1094374709451030528L
sbag1
(g2
g3
Ntp371
Rp372
(dp373
g7
L1103381908705771520L
sbag1
(g2
g3
Ntp374
Rp375
(dp376
g7
L1112389107960512512L
sbag1
(g2
g3
Ntp377
Rp378
(dp379
g7
L1121396307215253504L
sbag1
(g2
g3
Ntp380
Rp381
(dp382
g7
L1130403506469994496L
sbag1
(g2
g3
Ntp383
Rp384
(dp385
g7
L1139410705724735488L
sbag1
(g2
g3
Ntp386
Rp387
(dp388
g7
L1148417904979476480L
sbag1
(g2
g3
Ntp389
Rp390
(dp391
g7
L1157425104234217472L
sbag1
(g2
g3
Ntp392
Rp393
(dp394
g7
L1166432303488958464L
sbag1
(g2
g3
Ntp395
Rp396
(dp397
g7
L1175439502743699456L
sbag1
(g2
g3
Ntp398
Rp399
(dp400
g7
L1184446701998440448L
sbag1
(g2
g3
Ntp401
Rp402
(dp403
g7
L1193453901253181440L
sbag1
(g2
g3
Ntp404
Rp405
(dp406
g7
L1202461100507922432L
sbag1
(g2
g3
Ntp407
Rp408
(dp409
g7
L1211468299762663424L
sbag1
(g2
g3
Ntp410
Rp411
(dp412
g7
L1220475499017404416L
sbag1
(g2
g3
Ntp413
Rp414
(dp415
g7
L1229482698272145408L
sbag1
(g2
g3
Ntp416
Rp417
(dp418
g7
L1238489897526886400L
sbag1
(g2
g3
Ntp419
Rp420
(dp421
g7
L1247497096781627392L
sbag1
(g2
g3
Ntp422
Rp423
(dp424
g7
L1256504296036368384L
sbag1
(g2
g3
Ntp425
Rp426
(dp427
g7
L1265511495291109376L
sbag1
(g2
g3
Ntp428
Rp429
(dp430
g7
L1274518694545850368L
sbag1
(g2
g3
Ntp431
Rp432
(dp433
g7
L1283525893800591360L
sbag1
(g2
g3
Ntp434
Rp435
(dp436
g7
L1292533093055332352L
sbag1
(g2
g3
Ntp437
Rp438
(dp439
g7
L1301540292310073344L
sbag1
(g2
g3
Ntp440
Rp441
(dp442
g7
L1310547491564814336L
sbag1
(g2
g3
Ntp443
Rp444
(dp445
g7
L1319554690819555328L
sbag1
(g2
g3
Ntp446
Rp447
(dp448
g7
L1328561890074296320L
sbag1
(g2
g3
Ntp449
Rp450
(dp451
g7
L1337569089329037312L
sbag1
(g2
g3
Ntp452
Rp453
(dp454
g7
L1346576288583778304L
sbag1
(g2
g3
Ntp455
Rp456
(dp457
g7
L1355583487838519296L
sbag1
(g2
g3
Ntp458
Rp459
(dp460
g7
L1364590687093260288L
sbag1
(g2
g3
Ntp461
Rp462
(dp463
g7
L1373597886348001280L
sbag1
(g2
g3
Ntp464
Rp465
(dp466
g7
L1382605085602742272L
sbag1
(g2
g3
Ntp467
Rp468
(dp469
g7
L1391612284857483264L
sbag1
(g2
g3
Ntp470
Rp471
(dp472
g7
L1400619484112224256L
sbag1
(g2
g3
Ntp473
Rp474
(dp475
g7
L1409626683366965248L
sbag1
(g2
g3
Ntp476
Rp477
(dp478
g7
L1418633882621706240L
sbag1
(g2
g3
Ntp479
Rp480
(dp481
g7
L1427641081876447232L
sbag1
(g2
g3
Ntp482
Rp483
(dp484
g7
L1436648281131188224L
sbag1
(g2
g3
Ntp485
Rp486
(dp487
g7
L1445655480385929216L
sbag1
(g2
g3
Ntp488
Rp489
(dp490
g7
L1454662679640670208L
sbag1
(g2
g3
Ntp491
Rp492
(dp493
g7
L1463669878895411200L
sbag1
(g2
g3
Ntp494
Rp495
(dp496
g7
L1472677078150152192L
sbag1
(g2
g3
Ntp497
Rp498
(dp499
g7
L1481684277404893184L
sbag1
(g2
g3
Ntp500
Rp501
(dp502
g7
L1490691476659634176L
sbag1
(g2
g3
Ntp503
Rp504
(dp505
g7
L1499698675914375168L
sbag1
(g2
g3
Ntp506
Rp507
(dp508
g7
L1508705875169116160L
sbag1
(g2
g3
Ntp509
Rp510
(dp511
g7
L1517713074423857152L
sbag1
(g2
g3
Ntp512
Rp513
(dp514
g7
L1526720273678598144L
sbag1
(g2
g3
Ntp515
Rp516
(dp517
g7
L1535727472933339136L
sbag1
(g2
g3
Ntp518
Rp519
(dp520
g7
L1544734672188080128L
sbag1
(g2
g3
Ntp521
Rp522
(dp523
g7
L1553741871442821120L
sbag1
(g2
g3
Ntp524
Rp525
(dp526
g7
L1562749070697562112L
sbag1
(g2
g3
Ntp527
Rp528
(dp529
g7
L1571756269952303104L
sbag1
(g2
g3
Ntp530
Rp531
(dp532
g7
L1580763469207044096L
sbag1
(g2
g3
Ntp533
Rp534
(dp535
g7
L1589770668461785088L
sbag1
(g2
g3
Ntp536
Rp537
(dp538
g7
L1598777867716526080L
sbag1
(g2
g3
Ntp539
Rp540
(dp541
g7
L1607785066971267072L
sbag1
(g2
g3
Ntp542
Rp543
(dp544
g7
L1616792266226008064L
sbag1
(g2
g3
Ntp545
Rp546
(dp547
g7
L1625799465480749056L
sbag1
(g2
g3
Ntp548
Rp549
(dp550
g7
L1634806664735490048L
sbag1
(g2
g3
Ntp551
Rp552
(dp553
g7
L1643813863990231040L
sbag1
(g2
g3
Ntp554
Rp555
(dp556
g7
L1652821063244972032L
sbag1
(g2
g3
Ntp557
Rp558
(dp559
g7
L1661828262499713024L
sbag1
(g2
g3
Ntp560
Rp561
(dp562
g7
L1670835461754454016L
sbag1
(g2
g3
Ntp563
Rp564
(dp565
g7
L1679842661009195008L
sbag1
(g2
g3
Ntp566
Rp567
(dp568
g7
L1688849860263936000L
sbag1
(g2
g3
Ntp569
Rp570
(dp571
g7
L1697857059518676992L
sbag1
(g2
g3
Ntp572
Rp573
(dp574
g7
L1706864258773417984L
sbag1
(g2
g3
Ntp575
Rp576
(dp577
g7
L1715871458028158976L
sbag1
(g2
g3
Ntp578
Rp579
(dp580
g7
L1724878657282899968L
sbag1
(g2
g3
Ntp581
Rp582
(dp583
g7
L1733885856537640960L
sbag1
(g2
g3
Ntp584
Rp585
(dp586
g7
L1742893055792381952L
sbag1
(g2
g3
Ntp587
Rp588
(dp589
g7
L1751900255047122944L
sbag1
(g2
g3
Ntp590
Rp591
(dp592
g7
L1760907454301863936L
sbag1
(g2
g3
Ntp593
Rp594
(dp595
g7
L1769914653556604928L
sbag1
(g2
g3
Ntp596
Rp597
(dp598
g7
L1778921852811345920L
sbag1
(g2
g3
Ntp599
Rp600
(dp601
g7
L1787929052066086912L
sbag1
(g2
g3
Ntp602
Rp603
(dp604
g7
L1796936251320827904L
sbag1
(g2
g3
Ntp605
Rp606
(dp607
g7
L1805943450575568896L
sbag1
(g2
g3
Ntp608
Rp609
(dp610
g7
L1814950649830309888L
sbag1
(g2
g3
Ntp611
Rp612
(dp613
g7
L1823957849085050880L
sbag1
(g2
g3
Ntp614
Rp615
(dp616
g7
L1832965048339791872L
sbag1
(g2
g3
Ntp617
Rp618
(dp619
g7
L1841972247594532864L
sbag1
(g2
g3
Ntp620
Rp621
(dp622
g7
L1850979446849273856L
sbag1
(g2
g3
Ntp623
Rp624
(dp625
g7
L1859986646104014848L
sbag1
(g2
g3
Ntp626
Rp627
(dp628
g7
L1868993845358755840L
sbag1
(g2
g3
Ntp629
Rp630
(dp631
g7
L1878001044613496832L
sbag1
(g2
g3
Ntp632
Rp633
(dp634
g7
L1887008243868237824L
sbag1
(g2
g3
Ntp635
Rp636
(dp637
g7
L1896015443122978816L
sbag1
(g2
g3
Ntp638
Rp639
(dp640
g7
L1905022642377719808L
sbag1
(g2
g3
Ntp641
Rp642
(dp643
g7
L1914029841632460800L
sbag1
(g2
g3
Ntp644
Rp645
(dp646
g7
L1923037040887201792L
sbag1
(g2
g3
Ntp647
Rp648
(dp649
g7
L1932044240141942784L
sbag1
(g2
g3
Ntp650
Rp651
(dp652
g7
L1941051439396683776L
sbag1
(g2
g3
Ntp653
Rp654
(dp655
g7
L1950058638651424768L
sbag1
(g2
g3
Ntp656
Rp657
(dp658
g7
L1959065837906165760L
sbag1
(g2
g3
Ntp659
Rp660
(dp661
g7
L1968073037160906752L
sbag1
(g2
g3
Ntp662
Rp663
(dp664
g7
L1977080236415647744L
sbag1
(g2
g3
Ntp665
Rp666
(dp667
g7
L1986087435670388736L
sbag1
(g2
g3
Ntp668
Rp669
(dp670
g7
L1995094634925129728L
sbag1
(g2
g3
Ntp671
Rp672
(dp673
g7
L2004101834179870720L
sbag1
(g2
g3
Ntp674
Rp675
(dp676
g7
L2013109033434611712L
sbag1
(g2
g3
Ntp677
Rp678
(dp679
g7
L2022116232689352704L
sbag1
(g2
g3
Ntp680
Rp681
(dp682
g7
L2031123431944093696L
sbag1
(g2
g3
Ntp683
Rp684
(dp685
g7
L2040130631198834688L
sbag1
(g2
g3
Ntp686
Rp687
(dp688
g7
L2049137830453575680L
sbag1
(g2
g3
Ntp689
Rp690
(dp691
g7
L2058145029708316672L
sbag1
(g2
g3
Ntp692
Rp693
(dp694
g7
L2067152228963057664L
sbag1
(g2
g3
Ntp695
Rp696
(dp697
g7
L2076159428217798656L
sbag1
(g2
g3
Ntp698
Rp699
(dp700
g7
L2085166627472539648L
sbag1
(g2
g3
Ntp701
Rp702
(dp703
g7
L2094173826727280640L
sbag1
(g2
g3
Ntp704
Rp705
(dp706
g7
L2103181025982021632L
sbag1
(g2
g3
Ntp707
Rp708
(dp709
g7
L2112188225236762624L
sbag1
(g2
g3
Ntp710
Rp711
(dp712
g7
L2121195424491503616L
sbag1
(g2
g3
Ntp713
Rp714
(dp715
g7
L2130202623746244608L
sbag1
(g2
g3
Ntp716
Rp717
(dp718
g7
L2139209823000985600L
sbag1
(g2
g3
Ntp719
Rp720
(dp721
g7
L2148217022255726592L
sbag1
(g2
g3
Ntp722
Rp723
(dp724
g7
L2157224221510467584L
sbag1
(g2
g3
Ntp725
Rp726
(dp727
g7
L2166231420765208576L
sbag1
(g2
g3
Ntp728
Rp729
(dp730
g7
L2175238620019949568L
sbag1
(g2
g3
Ntp731
Rp732
(dp733
g7
L2184245819274690560L
sbag1
(g2
g3
Ntp734
Rp735
(dp736
g7
L2193253018529431552L
sbag1
(g2
g3
Ntp737
Rp738
(dp739
g7
L2202260217784172544L
sbag1
(g2
g3
Ntp740
Rp741
(dp742
g7
L2211267417038913536L
sbag1
(g2
g3
Ntp743
Rp744
(dp745
g7
L2220274616293654528L
sbag1
(g2
g3
Ntp746
Rp747
(dp748
g7
L2229281815548395520L
sbag1
(g2
g3
Ntp749
Rp750
(dp751
g7
L2238289014803136512L
sbag1
(g2
g3
Ntp752
Rp753
(dp754
g7
L2247296214057877504L
sbag1
(g2
g3
Ntp755
Rp756
(dp757
g7
L2256303413312618496L
sbag1
(g2
g3
Ntp758
Rp759
(dp760
g7
L2265310612567359488L
sbag1
(g2
g3
Ntp761
Rp762
(dp763
g7
L2274317811822100480L
sbag1
(g2
g3
Ntp764
Rp765
(dp766
g7
L2283325011076841472L
sbag1
(g2
g3
Ntp767
Rp768
(dp769
g7
L2292332210331582464L
sbag1
(g2
g3
Ntp770
Rp771
(dp772
g7
L2301339409586323456L
sbag1
(g2
g3
Ntp773
Rp774
(dp775
g7
L2310346608841064448L
sbag1
(g2
g3
Ntp776
Rp777
(dp778
g7
L2319353808095805440L
sbag1
(g2
g3
Ntp779
Rp780
(dp781
g7
L2328361007350546432L
sbag1
(g2
g3
Ntp782
Rp783
(dp784
g7
L2337368206605287424L
sbag1
(g2
g3
Ntp785
Rp786
(dp787
g7
L2346375405860028416L
sbag1
(g2
g3
Ntp788
Rp789
(dp790
g7
L2355382605114769408L
sbag1
(g2
g3
Ntp791
Rp792
(dp793
g7
L2364389804369510400L
sbag1
(g2
g3
Ntp794
Rp795
(dp796
g7
L2373397003624251392L
sbag1
(g2
g3
Ntp797
Rp798
(dp799
g7
L2382404202878992384L
sbag1
(g2
g3
Ntp800
Rp801
(dp802
g7
L2391411402133733376L
sbag1
(g2
g3
Ntp803
Rp804
(dp805
g7
L2400418601388474368L
sbag1
(g2
g3
Ntp806
Rp807
(dp808
g7
L2409425800643215360L
sbag1
(g2
g3
Ntp809
Rp810
(dp811
g7
L2418432999897956352L
sbag1
(g2
g3
Ntp812
Rp813
(dp814
g7
L2427440199152697344L
sbag1
(g2
g3
Ntp815
Rp816
(dp817
g7
L2436447398407438336L
sbag1
(g2
g3
Ntp818
Rp819
(dp820
g7
L2445454597662179328L
sbag1
(g2
g3
Ntp821
Rp822
(dp823
g7
L2454461796916920320L
sbag1
(g2
g3
Ntp824
Rp825
(dp826
g7
L2463468996171661312L
sbag1
(g2
g3
Ntp827
Rp828
(dp829
g7
L2472476195426402304L
sbag1
(g2
g3
Ntp830
Rp831
(dp832
g7
L2481483394681143296L
sbag1
(g2
g3
Ntp833
Rp834
(dp835
g7
L2490490593935884288L
sbag1
(g2
g3
Ntp836
Rp837
(dp838
g7
L2499497793190625280L
sbag1
(g2
g3
Ntp839
Rp840
(dp841
g7
L2508504992445366272L
sbag1
(g2
g3
Ntp842
Rp843
(dp844
g7
L2517512191700107264L
sbag1
(g2
g3
Ntp845
Rp846
(dp847
g7
L2526519390954848256L
sbag1
(g2
g3
Ntp848
Rp849
(dp850
g7
L2535526590209589248L
sbag1
(g2
g3
Ntp851
Rp852
(dp853
g7
L2544533789464330240L
sbag1
(g2
g3
Ntp854
Rp855
(dp856
g7
L2553540988719071232L
sbag1
(g2
g3
Ntp857
Rp858
(dp859
g7
L2562548187973812224L
sbag1
(g2
g3
Ntp860
Rp861
(dp862
g7
L2571555387228553216L
sbag1
(g2
g3
Ntp863
Rp864
(dp865
g7
L2580562586483294208L
sbag1
(g2
g3
Ntp866
Rp867
(dp868
g7
L2589569785738035200L
sbag1
(g2
g3
Ntp869
Rp870
(dp871
g7
L2598576984992776192L
sbag1
(g2
g3
Ntp872
Rp873
(dp874
g7
L2607584184247517184L
sbag1
(g2
g3
Ntp875
Rp876
(dp877
g7
L2616591383502258176L
sbag1
(g2
g3
Ntp878
Rp879
(dp880
g7
L2625598582756999168L
sbag1
(g2
g3
Ntp881
Rp882
(dp883
g7
L2634605782011740160L
sbag1
(g2
g3
Ntp884
Rp885
(dp886
g7
L2643612981266481152L
sbag1
(g2
g3
Ntp887
Rp888
(dp889
g7
L2652620180521222144L
sbag1
(g2
g3
Ntp890
Rp891
(dp892
g7
L2661627379775963136L
sbag1
(g2
g3
Ntp893
Rp894
(dp895
g7
L2670634579030704128L
sbag1
(g2
g3
Ntp896
Rp897
(dp898
g7
L2679641778285445120L
sbag1
(g2
g3
Ntp899
Rp900
(dp901
g7
L2688648977540186112L
sbag1
(g2
g3
Ntp902
Rp903
(dp904
g7
L2697656176794927104L
sbag1
(g2
g3
Ntp905
Rp906
(dp907
g7
L2706663376049668096L
sbag1
(g2
g3
Ntp908
Rp909
(dp910
g7
L2715670575304409088L
sbag1
(g2
g3
Ntp911
Rp912
(dp913
g7
L2724677774559150080L
sbag1
(g2
g3
Ntp914
Rp915
(dp916
g7
L2733684973813891072L
sbag1
(g2
g3
Ntp917
Rp918
(dp919
g7
L2742692173068632064L
sbag1
(g2
g3
Ntp920
Rp921
(dp922
g7
L2751699372323373056L
sbag1
(g2
g3
Ntp923
Rp924
(dp925
g7
L2760706571578114048L
sbag1
(g2
g3
Ntp926
Rp927
(dp928
g7
L2769713770832855040L
sbag1
(g2
g3
Ntp929
Rp930
(dp931
g7
L2778720970087596032L
sbag1
(g2
g3
Ntp932
Rp933
(dp934
g7
L2787728169342337024L
sbag1
(g2
g3
Ntp935
Rp936
(dp937
g7
L2796735368597078016L
sbag1
(g2
g3
Ntp938
Rp939
(dp940
g7
L2805742567851819008L
sbag1
(g2
g3
Ntp941
Rp942
(dp943
g7
L2814749767106560000L
sbag1
(g2
g3
Ntp944
Rp945
(dp946
g7
L2823756966361300992L
sbag1
(g2
g3
Ntp947
Rp948
(dp949
g7
L2832764165616041984L
sbag1
(g2
g3
Ntp950
Rp951
(dp952
g7
L2841771364870782976L
sbag1
(g2
g3
Ntp953
Rp954
(dp955
g7
L2850778564125523968L
sbag1
(g2
g3
Ntp956
Rp957
(dp958
g7
L2859785763380264960L
sbag1
(g2
g3
Ntp959
Rp960
(dp961
g7
L2868792962635005952L
sbag1
(g2
g3
Ntp962
Rp963
(dp964
g7
L2877800161889746944L
sbag1
(g2
g3
Ntp965
Rp966
(dp967
g7
L2886807361144487936L
sbag1
(g2
g3
Ntp968
Rp969
(dp970
g7
L2895814560399228928L
sbag1
(g2
g3
Ntp971
Rp972
(dp973
g7
L2904821759653969920L
sbag1
(g2
g3
Ntp974
Rp975
(dp976
g7
L2913828958908710912L
sbag1
(g2
g3
Ntp977
Rp978
(dp979
g7
L2922836158163451904L
sbag1
(g2
g3
Ntp980
Rp981
(dp982
g7
L2931843357418192896L
sbag1
(g2
g3
Ntp983
Rp984
(dp985
g7
L2940850556672933888L
sbag1
(g2
g3
Ntp986
Rp987
(dp988
g7
L2949857755927674880L
sbag1
(g2
g3
Ntp989
Rp990
(dp991
g7
L2958864955182415872L
sbag1
(g2
g3
Ntp992
Rp993
(dp994
g7
L2967872154437156864L
sbag1
(g2
g3
Ntp995
Rp996
(dp997
g7
L2976879353691897856L
sbag1
(g2
g3
Ntp998
Rp999
(dp1000
g7
L2985886552946638848L
sbag1
(g2
g3
Ntp1001
Rp1002
(dp1003
g7
L2994893752201379840L
sbag1
(g2
g3
Ntp1004
Rp1005
(dp1006
g7
L3003900951456120832L
sbag1
(g2
g3
Ntp1007
Rp1008
(dp1009
g7
L3012908150710861824L
sbag1
(g2
g3
Ntp1010
Rp1011
(dp1012
g7
L3021915349965602816L
sbag1
(g2
g3
Ntp1013
Rp1014
(dp1015
g7
L3030922549220343808L
sbag1
(g2
g3
Ntp1016
Rp1017
(dp1018
g7
L3039929748475084800L
sbag1
(g2
g3
Ntp1019
Rp1020
(dp1021
g7
L3048936947729825792L
sbag1
(g2
g3
Ntp1022
Rp1023
(dp1024
g7
L3057944146984566784L
sbag1
(g2
g3
Ntp1025
Rp1026
(dp1027
g7
L3066951346239307776L
sbag1
(g2
g3
Ntp1028
Rp1029
(dp1030
g7
L3075958545494048768L
sbag1
(g2
g3
Ntp1031
Rp1032
(dp1033
g7
L3084965744748789760L
sbag1
(g2
g3
Ntp1034
Rp1035
(dp1036
g7
L3093972944003530752L
sbag1
(g2
g3
Ntp1037
Rp1038
(dp1039
g7
L3102980143258271744L
sbag1
(g2
g3
Ntp1040
Rp1041
(dp1042
g7
L3111987342513012736L
sbag1
(g2
g3
Ntp1043
Rp1044
(dp1045
g7
L3120994541767753728L
sbag1
(g2
g3
Ntp1046
Rp1047
(dp1048
g7
L3130001741022494720L
sbag1
(g2
g3
Ntp1049
Rp1050
(dp1051
g7
L3139008940277235712L
sbag1
(g2
g3
Ntp1052
Rp1053
(dp1054
g7
L3148016139531976704L
sbag1
(g2
g3
Ntp1055
Rp1056
(dp1057
g7
L3157023338786717696L
sbag1
(g2
g3
Ntp1058
Rp1059
(dp1060
g7
L3166030538041458688L
sbag1
(g2
g3
Ntp1061
Rp1062
(dp1063
g7
L3175037737296199680L
sbag1
(g2
g3
Ntp1064
Rp1065
(dp1066
g7
L3184044936550940672L
sbag1
(g2
g3
Ntp1067
Rp1068
(dp1069
g7
L3193052135805681664L
sbag1
(g2
g3
Ntp1070
Rp1071
(dp1072
g7
L3202059335060422656L
sbag1
(g2
g3
Ntp1073
Rp1074
(dp1075
g7
L3211066534315163648L
sbag1
(g2
g3
Ntp1076
Rp1077
(dp1078
g7
L3220073733569904640L
sbag1
(g2
g3
Ntp1079
Rp1080
(dp1081
g7
L3229080932824645632L
sbag1
(g2
g3
Ntp1082
Rp1083
(dp1084
g7
L3238088132079386624L
sbag1
(g2
g3
Ntp1085
Rp1086
(dp1087
g7
L3247095331334127616L
sbag1
(g2
g3
Ntp1088
Rp1089
(dp1090
g7
L3256102530588868608L
sbag1
(g2
g3
Ntp1091
Rp1092
(dp1093
g7
L3265109729843609600L
sbag1
(g2
g3
Ntp1094
Rp1095
(dp1096
g7
L3274116929098350592L
sbag1
(g2
g3
Ntp1097
Rp1098
(dp1099
g7
L3283124128353091584L
sbag1
(g2
g3
Ntp1100
Rp1101
(dp1102
g7
L3292131327607832576L
sbag1
(g2
g3
Ntp1103
Rp1104
(dp1105
g7
L3301138526862573568L
sbag1
(g2
g3
Ntp1106
Rp1107
(dp1108
g7
L3310145726117314560L
sbag1
(g2
g3
Ntp1109
Rp1110
(dp1111
g7
L3319152925372055552L
sbag1
(g2
g3
Ntp1112
Rp1113
(dp1114
g7
L3328160124626796544L
sbag1
(g2
g3
Ntp1115
Rp1116
(dp1117
g7
L3337167323881537536L
sbag1
(g2
g3
Ntp1118
Rp1119
(dp1120
g7
L3346174523136278528L
sbag1
(g2
g3
Ntp1121
Rp1122
(dp1123
g7
L3355181722391019520L
sbag1
(g2
g3
Ntp1124
Rp1125
(dp1126
g7
L3364188921645760512L
sbag1
(g2
g3
Ntp1127
Rp1128
(dp1129
g7
L3373196120900501504L
sbag1
(g2
g3
Ntp1130
Rp1131
(dp1132
g7
L3382203320155242496L
sbag1
(g2
g3
Ntp1133
Rp1134
(dp1135
g7
L3391210519409983488L
sbag1
(g2
g3
Ntp1136
Rp1137
(dp1138
g7
L3400217718664724480L
sbag1
(g2
g3
Ntp1139
Rp1140
(dp1141
g7
L3409224917919465472L
sbag1
(g2
g3
Ntp1142
Rp1143
(dp1144
g7
L3418232117174206464L
sbag1
(g2
g3
Ntp1145
Rp1146
(dp1147
g7
L3427239316428947456L
sbag1
(g2
g3
Ntp1148
Rp1149
(dp1150
g7
L3436246515683688448L
sbag1
(g2
g3
Ntp1151
Rp1152
(dp1153
g7
L3445253714938429440L
sbag1
(g2
g3
Ntp1154
Rp1155
(dp1156
g7
L3454260914193170432L
sbag1
(g2
g3
Ntp1157
Rp1158
(dp1159
g7
L3463268113447911424L
sbag1
(g2
g3
Ntp1160
Rp1161
(dp1162
g7
L3472275312702652416L
sbag1
(g2
g3
Ntp1163
Rp1164
(dp1165
g7
L3481282511957393408L
sbag1
(g2
g3
Ntp1166
Rp1167
(dp1168
g7
L3490289711212134400L
sbag1
(g2
g3
Ntp1169
Rp1170
(dp1171
g7
L3499296910466875392L
sbag1
(g2
g3
Ntp1172
Rp1173
(dp1174
g7
L3508304109721616384L
sbag1
(g2
g3
Ntp1175
Rp1176
(dp1177
g7
L3517311308976357376L
sbag1
(g2
g3
Ntp1178
Rp1179
(dp1180
g7
L3526318508231098368L
sbag1
(g2
g3
Ntp1181
Rp1182
(dp1183
g7
L3535325707485839360L
sbag1
(g2
g3
Ntp1184
Rp1185
(dp1186
g7
L3544332906740580352L
sbag1
(g2
g3
Ntp1187
Rp1188
(dp1189
g7
L3553340105995321344L
sbag1
(g2
g3
Ntp1190
Rp1191
(dp1192
g7
L3562347305250062336L
sbag1
(g2
g3
Ntp1193
Rp1194
(dp1195
g7
L3571354504504803328L
sbag1
(g2
g3
Ntp1196
Rp1197
(dp1198
g7
L3580361703759544320L
sbag1
(g2
g3
Ntp1199
Rp1200
(dp1201
g7
L3589368903014285312L
sbag1
(g2
g3
Ntp1202
Rp1203
(dp1204
g7
L3598376102269026304L
sbag1
(g2
g3
Ntp1205
Rp1206
(dp1207
g7
L3607383301523767296L
sbag1
(g2
g3
Ntp1208
Rp1209
(dp1210
g7
L3616390500778508288L
sbag1
(g2
g3
Ntp1211
Rp1212
(dp1213
g7
L3625397700033249280L
sbag1
(g2
g3
Ntp1214
Rp1215
(dp1216
g7
L3634404899287990272L
sbag1
(g2
g3
Ntp1217
Rp1218
(dp1219
g7
L3643412098542731264L
sbag1
(g2
g3
Ntp1220
Rp1221
(dp1222
g7
L3652419297797472256L
sbag1
(g2
g3
Ntp1223
Rp1224
(dp1225
g7
L3661426497052213248L
sbag1
(g2
g3
Ntp1226
Rp1227
(dp1228
g7
L3670433696306954240L
sbag1
(g2
g3
Ntp1229
Rp1230
(dp1231
g7
L3679440895561695232L
sbag1
(g2
g3
Ntp1232
Rp1233
(dp1234
g7
L3688448094816436224L
sbag1
(g2
g3
Ntp1235
Rp1236
(dp1237
g7
L3697455294071177216L
sbag1
(g2
g3
Ntp1238
Rp1239
(dp1240
g7
L3706462493325918208L
sbag1
(g2
g3
Ntp1241
Rp1242
(dp1243
g7
L3715469692580659200L
sbag1
(g2
g3
Ntp1244
Rp1245
(dp1246
g7
L3724476891835400192L
sbag1
(g2
g3
Ntp1247
Rp1248
(dp1249
g7
L3733484091090141184L
sbag1
(g2
g3
Ntp1250
Rp1251
(dp1252
g7
L3742491290344882176L
sbag1
(g2
g3
Ntp1253
Rp1254
(dp1255
g7
L3751498489599623168L
sbag1
(g2
g3
Ntp1256
Rp1257
(dp1258
g7
L3760505688854364160L
sbag1
(g2
g3
Ntp1259
Rp1260
(dp1261
g7
L3769512888109105152L
sbag1
(g2
g3
Ntp1262
Rp1263
(dp1264
g7
L3778520087363846144L
sbag1
(g2
g3
Ntp1265
Rp1266
(dp1267
g7
L3787527286618587136L
sbag1
(g2
g3
Ntp1268
Rp1269
(dp1270
g7
L3796534485873328128L
sbag1
(g2
g3
Ntp1271
Rp1272
(dp1273
g7
L3805541685128069120L
sbag1
(g2
g3
Ntp1274
Rp1275
(dp1276
g7
L3814548884382810112L
sbag1
(g2
g3
Ntp1277
Rp1278
(dp1279
g7
L3823556083637551104L
sbag1
(g2
g3
Ntp1280
Rp1281
(dp1282
g7
L3832563282892292096L
sbag1
(g2
g3
Ntp1283
Rp1284
(dp1285
g7
L3841570482147033088L
sbag1
(g2
g3
Ntp1286
Rp1287
(dp1288
g7
L3850577681401774080L
sbag1
(g2
g3
Ntp1289
Rp1290
(dp1291
g7
L3859584880656515072L
sbag1
(g2
g3
Ntp1292
Rp1293
(dp1294
g7
L3868592079911256064L
sbag1
(g2
g3
Ntp1295
Rp1296
(dp1297
g7
L3877599279165997056L
sbag1
(g2
g3
Ntp1298
Rp1299
(dp1300
g7
L3886606478420738048L
sbag1
(g2
g3
Ntp1301
Rp1302
(dp1303
g7
L3895613677675479040L
sbag1
(g2
g3
Ntp1304
Rp1305
(dp1306
g7
L3904620876930220032L
sbag1
(g2
g3
Ntp1307
Rp1308
(dp1309
g7
L3913628076184961024L
sbag1
(g2
g3
Ntp1310
Rp1311
(dp1312
g7
L3922635275439702016L
sbag1
(g2
g3
Ntp1313
Rp1314
(dp1315
g7
L3931642474694443008L
sbag1
(g2
g3
Ntp1316
Rp1317
(dp1318
g7
L3940649673949184000L
sbag1
(g2
g3
Ntp1319
Rp1320
(dp1321
g7
L3949656873203924992L
sbag1
(g2
g3
Ntp1322
Rp1323
(dp1324
g7
L3958664072458665984L
sbag1
(g2
g3
Ntp1325
Rp1326
(dp1327
g7
L3967671271713406976L
sbag1
(g2
g3
Ntp1328
Rp1329
(dp1330
g7
L3976678470968147968L
sbag1
(g2
g3
Ntp1331
Rp1332
(dp1333
g7
L3985685670222888960L
sbag1
(g2
g3
Ntp1334
Rp1335
(dp1336
g7
L3994692869477629952L
sbag1
(g2
g3
Ntp1337
Rp1338
(dp1339
g7
L4003700068732370944L
sbag1
(g2
g3
Ntp1340
Rp1341
(dp1342
g7
L4012707267987111936L
sbag1
(g2
g3
Ntp1343
Rp1344
(dp1345
g7
L4021714467241852928L
sbag1
(g2
g3
Ntp1346
Rp1347
(dp1348
g7
L4030721666496593920L
sbag1
(g2
g3
Ntp1349
Rp1350
(dp1351
g7
L4039728865751334912L
sbag1
(g2
g3
Ntp1352
Rp1353
(dp1354
g7
L4048736065006075904L
sbag1
(g2
g3
Ntp1355
Rp1356
(dp1357
g7
L4057743264260816896L
sbag1
(g2
g3
Ntp1358
Rp1359
(dp1360
g7
L4066750463515557888L
sbag1
(g2
g3
Ntp1361
Rp1362
(dp1363
g7
L4075757662770298880L
sbag1
(g2
g3
Ntp1364
Rp1365
(dp1366
g7
L4084764862025039872L
sbag1
(g2
g3
Ntp1367
Rp1368
(dp1369
g7
L4093772061279780864L
sbag1
(g2
g3
Ntp1370
Rp1371
(dp1372
g7
L4102779260534521856L
sbag1
(g2
g3
Ntp1373
Rp1374
(dp1375
g7
L4111786459789262848L
sbag1
(g2
g3
Ntp1376
Rp1377
(dp1378
g7
L4120793659044003840L
sbag1
(g2
g3
Ntp1379
Rp1380
(dp1381
g7
L4129800858298744832L
sbag1
(g2
g3
Ntp1382
Rp1383
(dp1384
g7
L4138808057553485824L
sbag1
(g2
g3
Ntp1385
Rp1386
(dp1387
g7
L4147815256808226816L
sbag1
(g2
g3
Ntp1388
Rp1389
(dp1390
g7
L4156822456062967808L
sbag1
(g2
g3
Ntp1391
Rp1392
(dp1393
g7
L4165829655317708800L
sbag1
(g2
g3
Ntp1394
Rp1395
(dp1396
g7
L4174836854572449792L
sbag1
(g2
g3
Ntp1397
Rp1398
(dp1399
g7
L4183844053827190784L
sbag1
(g2
g3
Ntp1400
Rp1401
(dp1402
g7
L4192851253081931776L
sbag1
(g2
g3
Ntp1403
Rp1404
(dp1405
g7
L4201858452336672768L
sbag1
(g2
g3
Ntp1406
Rp1407
(dp1408
g7
L4210865651591413760L
sbag1
(g2
g3
Ntp1409
Rp1410
(dp1411
g7
L4219872850846154752L
sbag1
(g2
g3
Ntp1412
Rp1413
(dp1414
g7
L4228880050100895744L
sbag1
(g2
g3
Ntp1415
Rp1416
(dp1417
g7
L4237887249355636736L
sbag1
(g2
g3
Ntp1418
Rp1419
(dp1420
g7
L4246894448610377728L
sbag1
(g2
g3
Ntp1421
Rp1422
(dp1423
g7
L4255901647865118720L
sbag1
(g2
g3
Ntp1424
Rp1425
(dp1426
g7
L4264908847119859712L
sbag1
(g2
g3
Ntp1427
Rp1428
(dp1429
g7
L4273916046374600704L
sbag1
(g2
g3
Ntp1430
Rp1431
(dp1432
g7
L4282923245629341696L
sbag1
(g2
g3
Ntp1433
Rp1434
(dp1435
g7
L4291930444884082688L
sbag1
(g2
g3
Ntp1436
Rp1437
(dp1438
g7
L4300937644138823680L
sbag1
(g2
g3
Ntp1439
Rp1440
(dp1441
g7
L4309944843393564672L
sbag1
(g2
g3
Ntp1442
Rp1443
(dp1444
g7
L4318952042648305664L
sbag1
(g2
g3
Ntp1445
Rp1446
(dp1447
g7
L4327959241903046656L
sbag1
(g2
g3
Ntp1448
Rp1449
(dp1450
g7
L4336966441157787648L
sbag1
(g2
g3
Ntp1451
Rp1452
(dp1453
g7
L4345973640412528640L
sbag1
(g2
g3
Ntp1454
Rp1455
(dp1456
g7
L4354980839667269632L
sbag1
(g2
g3
Ntp1457
Rp1458
(dp1459
g7
L4363988038922010624L
sbag1
(g2
g3
Ntp1460
Rp1461
(dp1462
g7
L4372995238176751616L
sbag1
(g2
g3
Ntp1463
Rp1464
(dp1465
g7
L4382002437431492608L
sbag1
(g2
g3
Ntp1466
Rp1467
(dp1468
g7
L4391009636686233600L
sbag1
(g2
g3
Ntp1469
Rp1470
(dp1471
g7
L4400016835940974592L
sbag1
(g2
g3
Ntp1472
Rp1473
(dp1474
g7
L4409024035195715584L
sbag1
(g2
g3
Ntp1475
Rp1476
(dp1477
g7
L4418031234450456576L
sbag1
(g2
g3
Ntp1478
Rp1479
(dp1480
g7
L4427038433705197568L
sbag1
(g2
g3
Ntp1481
Rp1482
(dp1483
g7
L4436045632959938560L
sbag1
(g2
g3
Ntp1484
Rp1485
(dp1486
g7
L4445052832214679552L
sbag1
(g2
g3
Ntp1487
Rp1488
(dp1489
g7
L4454060031469420544L
sbag1
(g2
g3
Ntp1490
Rp1491
(dp1492
g7
L4463067230724161536L
sbag1
(g2
g3
Ntp1493
Rp1494
(dp1495
g7
L4472074429978902528L
sbag1
(g2
g3
Ntp1496
Rp1497
(dp1498
g7
L4481081629233643520L
sbag1
(g2
g3
Ntp1499
Rp1500
(dp1501
g7
L4490088828488384512L
sbag1
(g2
g3
Ntp1502
Rp1503
(dp1504
g7
L4499096027743125504L
sbag1
(g2
g3
Ntp1505
Rp1506
(dp1507
g7
L4508103226997866496L
sbag1
(g2
g3
Ntp1508
Rp1509
(dp1510
g7
L4517110426252607488L
sbag1
(g2
g3
Ntp1511
Rp1512
(dp1513
g7
L4526117625507348480L
sbag1
(g2
g3
Ntp1514
Rp1515
(dp1516
g7
L4535124824762089472L
sbag1
(g2
g3
Ntp1517
Rp1518
(dp1519
g7
L4544132024016830464L
sbag1
(g2
g3
Ntp1520
Rp1521
(dp1522
g7
L4553139223271571456L
sbag1
(g2
g3
Ntp1523
Rp1524
(dp1525
g7
L4562146422526312448L
sbag1
(g2
g3
Ntp1526
Rp1527
(dp1528
g7
L4571153621781053440L
sbag1
(g2
g3
Ntp1529
Rp1530
(dp1531
g7
L4580160821035794432L
sbag1
(g2
g3
Ntp1532
Rp1533
(dp1534
g7
L4589168020290535424L
sbag1
(g2
g3
Ntp1535
Rp1536
(dp1537
g7
L4598175219545276416L
sbag1
(g2
g3
Ntp1538
Rp1539
(dp1540
g7
L4607182418800017408L
sbag1
(g2
g3
Ntp1541
Rp1542
(dp1543
g7
L4616189618054758400L
sbag1
(g2
g3
Ntp1544
Rp1545
(dp1546
g7
L4625196817309499392L
sbag1
(g2
g3
Ntp1547
Rp1548
(dp1549
g7
L4634204016564240384L
sbag1
(g2
g3
Ntp1550
Rp1551
(dp1552
g7
L4643211215818981376L
sbag1
(g2
g3
Ntp1553
Rp1554
(dp1555
g7
L4652218415073722368L
sbag1
(g2
g3
Ntp1556
Rp1557
(dp1558
g7
L4661225614328463360L
sbag1
(g2
g3
Ntp1559
Rp1560
(dp1561
g7
L4670232813583204352L
sbag1
(g2
g3
Ntp1562
Rp1563
(dp1564
g7
L4679240012837945344L
sbag1
(g2
g3
Ntp1565
Rp1566
(dp1567
g7
L4688247212092686336L
sbag1
(g2
g3
Ntp1568
Rp1569
(dp1570
g7
L4697254411347427328L
sbag1
(g2
g3
Ntp1571
Rp1572
(dp1573
g7
L4706261610602168320L
sbag1
(g2
g3
Ntp1574
Rp1575
(dp1576
g7
L4715268809856909312L
sbag1
(g2
g3
Ntp1577
Rp1578
(dp1579
g7
L4724276009111650304L
sbag1
(g2
g3
Ntp1580
Rp1581
(dp1582
g7
L4733283208366391296L
sbag1
(g2
g3
Ntp1583
Rp1584
(dp1585
g7
L4742290407621132288L
sbag1
(g2
g3
Ntp1586
Rp1587
(dp1588
g7
L4751297606875873280L
sbag1
(g2
g3
Ntp1589
Rp1590
(dp1591
g7
L4760304806130614272L
sbag1
(g2
g3
Ntp1592
Rp1593
(dp1594
g7
L4769312005385355264L
sbag1
(g2
g3
Ntp1595
Rp1596
(dp1597
g7
L4778319204640096256L
sbag1
(g2
g3
Ntp1598
Rp1599
(dp1600
g7
L4787326403894837248L
sbag1
(g2
g3
Ntp1601
Rp1602
(dp1603
g7
L4796333603149578240L
sbag1
(g2
g3
Ntp1604
Rp1605
(dp1606
g7
L4805340802404319232L
sbag1
(g2
g3
Ntp1607
Rp1608
(dp1609
g7
L4814348001659060224L
sbag1
(g2
g3
Ntp1610
Rp1611
(dp1612
g7
L4823355200913801216L
sbag1
(g2
g3
Ntp1613
Rp1614
(dp1615
g7
L4832362400168542208L
sbag1
(g2
g3
Ntp1616
Rp1617
(dp1618
g7
L4841369599423283200L
sbag1
(g2
g3
Ntp1619
Rp1620
(dp1621
g7
L4850376798678024192L
sbag1
(g2
g3
Ntp1622
Rp1623
(dp1624
g7
L4859383997932765184L
sbag1
(g2
g3
Ntp1625
Rp1626
(dp1627
g7
L4868391197187506176L
sbag1
(g2
g3
Ntp1628
Rp1629
(dp1630
g7
L4877398396442247168L
sbag1
(g2
g3
Ntp1631
Rp1632
(dp1633
g7
L4886405595696988160L
sbag1
(g2
g3
Ntp1634
Rp1635
(dp1636
g7
L4895412794951729152L
sbag1
(g2
g3
Ntp1637
Rp1638
(dp1639
g7
L4904419994206470144L
sbag1
(g2
g3
Ntp1640
Rp1641
(dp1642
g7
L4913427193461211136L
sbag1
(g2
g3
Ntp1643
Rp1644
(dp1645
g7
L4922434392715952128L
sbag1
(g2
g3
Ntp1646
Rp1647
(dp1648
g7
L4931441591970693120L
sbag1
(g2
g3
Ntp1649
Rp1650
(dp1651
g7
L4940448791225434112L
sbag1
(g2
g3
Ntp1652
Rp1653
(dp1654
g7
L4949455990480175104L
sbag1
(g2
g3
Ntp1655
Rp1656
(dp1657
g7
L4958463189734916096L
sbag1
(g2
g3
Ntp1658
Rp1659
(dp1660
g7
L4967470388989657088L
sbag1
(g2
g3
Ntp1661
Rp1662
(dp1663
g7
L4976477588244398080L
sbag1
(g2
g3
Ntp1664
Rp1665
(dp1666
g7
L4985484787499139072L
sbag1
(g2
g3
Ntp1667
Rp1668
(dp1669
g7
L4994491986753880064L
sbag1
(g2
g3
Ntp1670
Rp1671
(dp1672
g7
L5003499186008621056L
sbag1
(g2
g3
Ntp1673
Rp1674
(dp1675
g7
L5012506385263362048L
sbag1
(g2
g3
Ntp1676
Rp1677
(dp1678
g7
L5021513584518103040L
sbag1
(g2
g3
Ntp1679
Rp1680
(dp1681
g7
L5030520783772844032L
sbag1
(g2
g3
Ntp1682
Rp1683
(dp1684
g7
L5039527983027585024L
sbag1
(g2
g3
Ntp1685
Rp1686
(dp1687
g7
L5048535182282326016L
sbag1
(g2
g3
Ntp1688
Rp1689
(dp1690
g7
L5057542381537067008L
sbag1
(g2
g3
Ntp1691
Rp1692
(dp1693
g7
L5066549580791808000L
sbag1
(g2
g3
Ntp1694
Rp1695
(dp1696
g7
L5075556780046548992L
sbag1
(g2
g3
Ntp1697
Rp1698
(dp1699
g7
L5084563979301289984L
sbag1
(g2
g3
Ntp1700
Rp1701
(dp1702
g7
L5093571178556030976L
sbag1
(g2
g3
Ntp1703
Rp1704
(dp1705
g7
L5102578377810771968L
sbag1
(g2
g3
Ntp1706
Rp1707
(dp1708
g7
L5111585577065512960L
sbag1
(g2
g3
Ntp1709
Rp1710
(dp1711
g7
L5120592776320253952L
sbag1
(g2
g3
Ntp1712
Rp1713
(dp1714
g7
L5129599975574994944L
sbag1
(g2
g3
Ntp1715
Rp1716
(dp1717
g7
L5138607174829735936L
sbag1
(g2
g3
Ntp1718
Rp1719
(dp1720
g7
L5147614374084476928L
sbag1
(g2
g3
Ntp1721
Rp1722
(dp1723
g7
L5156621573339217920L
sbag1
(g2
g3
Ntp1724
Rp1725
(dp1726
g7
L5165628772593958912L
sbag1
(g2
g3
Ntp1727
Rp1728
(dp1729
g7
L5174635971848699904L
sbag1
(g2
g3
Ntp1730
Rp1731
(dp1732
g7
L5183643171103440896L
sbag1
(g2
g3
Ntp1733
Rp1734
(dp1735
g7
L5192650370358181888L
sbag1
(g2
g3
Ntp1736
Rp1737
(dp1738
g7
L5201657569612922880L
sbag1
(g2
g3
Ntp1739
Rp1740
(dp1741
g7
L5210664768867663872L
sbag1
(g2
g3
Ntp1742
Rp1743
(dp1744
g7
L5219671968122404864L
sbag1
(g2
g3
Ntp1745
Rp1746
(dp1747
g7
L5228679167377145856L
sbag1
(g2
g3
Ntp1748
Rp1749
(dp1750
g7
L5237686366631886848L
sbag1
(g2
g3
Ntp1751
Rp1752
(dp1753
g7
L5246693565886627840L
sbag1
(g2
g3
Ntp1754
Rp1755
(dp1756
g7
L5255700765141368832L
sbag1
(g2
g3
Ntp1757
Rp1758
(dp1759
g7
L5264707964396109824L
sbag1
(g2
g3
Ntp1760
Rp1761
(dp1762
g7
L5273715163650850816L
sbag1
(g2
g3
Ntp1763
Rp1764
(dp1765
g7
L5282722362905591808L
sbag1
(g2
g3
Ntp1766
Rp1767
(dp1768
g7
L5291729562160332800L
sbag1
(g2
g3
Ntp1769
Rp1770
(dp1771
g7
L5300736761415073792L
sbag1
(g2
g3
Ntp1772
Rp1773
(dp1774
g7
L5309743960669814784L
sbag1
(g2
g3
Ntp1775
Rp1776
(dp1777
g7
L5318751159924555776L
sbag1
(g2
g3
Ntp1778
Rp1779
(dp1780
g7
L5327758359179296768L
sbag1
(g2
g3
Ntp1781
Rp1782
(dp1783
g7
L5336765558434037760L
sbag1
(g2
g3
Ntp1784
Rp1785
(dp1786
g7
L5345772757688778752L
sbag1
(g2
g3
Ntp1787
Rp1788
(dp1789
g7
L5354779956943519744L
sbag1
(g2
g3
Ntp1790
Rp1791
(dp1792
g7
L5363787156198260736L
sbag1
(g2
g3
Ntp1793
Rp1794
(dp1795
g7
L5372794355453001728L
sbag1
(g2
g3
Ntp1796
Rp1797
(dp1798
g7
L5381801554707742720L
sbag1
(g2
g3
Ntp1799
Rp1800
(dp1801
g7
L5390808753962483712L
sbag1
(g2
g3
Ntp1802
Rp1803
(dp1804
g7
L5399815953217224704L
sbag1
(g2
g3
Ntp1805
Rp1806
(dp1807
g7
L5408823152471965696L
sbag1
(g2
g3
Ntp1808
Rp1809
(dp1810
g7
L5417830351726706688L
sbag1
(g2
g3
Ntp1811
Rp1812
(dp1813
g7
L5426837550981447680L
sbag1
(g2
g3
Ntp1814
Rp1815
(dp1816
g7
L5435844750236188672L
sbag1
(g2
g3
Ntp1817
Rp1818
(dp1819
g7
L5444851949490929664L
sbag1
(g2
g3
Ntp1820
Rp1821
(dp1822
g7
L5453859148745670656L
sbag1
(g2
g3
Ntp1823
Rp1824
(dp1825
g7
L5462866348000411648L
sbag1
(g2
g3
Ntp1826
Rp1827
(dp1828
g7
L5471873547255152640L
sbag1
(g2
g3
Ntp1829
Rp1830
(dp1831
g7
L5480880746509893632L
sbag1
(g2
g3
Ntp1832
Rp1833
(dp1834
g7
L5489887945764634624L
sbag1
(g2
g3
Ntp1835
Rp1836
(dp1837
g7
L5498895145019375616L
sbag1
(g2
g3
Ntp1838
Rp1839
(dp1840
g7
L5507902344274116608L
sbag1
(g2
g3
Ntp1841
Rp1842
(dp1843
g7
L5516909543528857600L
sbag1
(g2
g3
Ntp1844
Rp1845
(dp1846
g7
L5525916742783598592L
sbag1
(g2
g3
Ntp1847
Rp1848
(dp1849
g7
L5534923942038339584L
sbag1
(g2
g3
Ntp1850
Rp1851
(dp1852
g7
L5543931141293080576L
sbag1
(g2
g3
Ntp1853
Rp1854
(dp1855
g7
L5552938340547821568L
sbag1
(g2
g3
Ntp1856
Rp1857
(dp1858
g7
L5561945539802562560L
sbag1
(g2
g3
Ntp1859
Rp1860
(dp1861
g7
L5570952739057303552L
sbag1
(g2
g3
Ntp1862
Rp1863
(dp1864
g7
L5579959938312044544L
sbag1
(g2
g3
Ntp1865
Rp1866
(dp1867
g7
L5588967137566785536L
sbag1
(g2
g3
Ntp1868
Rp1869
(dp1870
g7
L5597974336821526528L
sbag1
(g2
g3
Ntp1871
Rp1872
(dp1873
g7
L5606981536076267520L
sbag1
(g2
g3
Ntp1874
Rp1875
(dp1876
g7
L5615988735331008512L
sbag1
(g2
g3
Ntp1877
Rp1878
(dp1879
g7
L5624995934585749504L
sbag1
(g2
g3
Ntp1880
Rp1881
(dp1882
g7
L5634003133840490496L
sbag1
(g2
g3
Ntp1883
Rp1884
(dp1885
g7
L5643010333095231488L
sbag1
(g2
g3
Ntp1886
Rp1887
(dp1888
g7
L5652017532349972480L
sbag1
(g2
g3
Ntp1889
Rp1890
(dp1891
g7
L5661024731604713472L
sbag1
(g2
g3
Ntp1892
Rp1893
(dp1894
g7
L5670031930859454464L
sbag1
(g2
g3
Ntp1895
Rp1896
(dp1897
g7
L5679039130114195456L
sbag1
(g2
g3
Ntp1898
Rp1899
(dp1900
g7
L5688046329368936448L
sbag1
(g2
g3
Ntp1901
Rp1902
(dp1903
g7
L5697053528623677440L
sbag1
(g2
g3
Ntp1904
Rp1905
(dp1906
g7
L5706060727878418432L
sbag1
(g2
g3
Ntp1907
Rp1908
(dp1909
g7
L5715067927133159424L
sbag1
(g2
g3
Ntp1910
Rp1911
(dp1912
g7
L5724075126387900416L
sbag1
(g2
g3
Ntp1913
Rp1914
(dp1915
g7
L5733082325642641408L
sbag1
(g2
g3
Ntp1916
Rp1917
(dp1918
g7
L5742089524897382400L
sbag1
(g2
g3
Ntp1919
Rp1920
(dp1921
g7
L5751096724152123392L
sbag1
(g2
g3
Ntp1922
Rp1923
(dp1924
g7
L5760103923406864384L
sbag1
(g2
g3
Ntp1925
Rp1926
(dp1927
g7
L5769111122661605376L
sbag1
(g2
g3
Ntp1928
Rp1929
(dp1930
g7
L5778118321916346368L
sbag1
(g2
g3
Ntp1931
Rp1932
(dp1933
g7
L5787125521171087360L
sbag1
(g2
g3
Ntp1934
Rp1935
(dp1936
g7
L5796132720425828352L
sbag1
(g2
g3
Ntp1937
Rp1938
(dp1939
g7
L5805139919680569344L
sbag1
(g2
g3
Ntp1940
Rp1941
(dp1942
g7
L5814147118935310336L
sbag1
(g2
g3
Ntp1943
Rp1944
(dp1945
g7
L5823154318190051328L
sbag1
(g2
g3
Ntp1946
Rp1947
(dp1948
g7
L5832161517444792320L
sbag1
(g2
g3
Ntp1949
Rp1950
(dp1951
g7
L5841168716699533312L
sbag1
(g2
g3
Ntp1952
Rp1953
(dp1954
g7
L5850175915954274304L
sbag1
(g2
g3
Ntp1955
Rp1956
(dp1957
g7
L5859183115209015296L
sbag1
(g2
g3
Ntp1958
Rp1959
(dp1960
g7
L5868190314463756288L
sbag1
(g2
g3
Ntp1961
Rp1962
(dp1963
g7
L5877197513718497280L
sbag1
(g2
g3
Ntp1964
Rp1965
(dp1966
g7
L5886204712973238272L
sbag1
(g2
g3
Ntp1967
Rp1968
(dp1969
g7
L5895211912227979264L
sbag1
(g2
g3
Ntp1970
Rp1971
(dp1972
g7
L5904219111482720256L
sbag1
(g2
g3
Ntp1973
Rp1974
(dp1975
g7
L5913226310737461248L
sbag1
(g2
g3
Ntp1976
Rp1977
(dp1978
g7
L5922233509992202240L
sbag1
(g2
g3
Ntp1979
Rp1980
(dp1981
g7
L5931240709246943232L
sbag1
(g2
g3
Ntp1982
Rp1983
(dp1984
g7
L5940247908501684224L
sbag1
(g2
g3
Ntp1985
Rp1986
(dp1987
g7
L5949255107756425216L
sbag1
(g2
g3
Ntp1988
Rp1989
(dp1990
g7
L5958262307011166208L
sbag1
(g2
g3
Ntp1991
Rp1992
(dp1993
g7
L5967269506265907200L
sbag1
(g2
g3
Ntp1994
Rp1995
(dp1996
g7
L5976276705520648192L
sbag1
(g2
g3
Ntp1997
Rp1998
(dp1999
g7
L5985283904775389184L
sbag1
(g2
g3
Ntp2000
Rp2001
(dp2002
g7
L5994291104030130176L
sbag1
(g2
g3
Ntp2003
Rp2004
(dp2005
g7
L6003298303284871168L
sbag1
(g2
g3
Ntp2006
Rp2007
(dp2008
g7
L6012305502539612160L
sbag1
(g2
g3
Ntp2009
Rp2010
(dp2011
g7
L6021312701794353152L
sbag1
(g2
g3
Ntp2012
Rp2013
(dp2014
g7
L6030319901049094144L
sbag1
(g2
g3
Ntp2015
Rp2016
(dp2017
g7
L6039327100303835136L
sbag1
(g2
g3
Ntp2018
Rp2019
(dp2020
g7
L6048334299558576128L
sbag1
(g2
g3
Ntp2021
Rp2022
(dp2023
g7
L6057341498813317120L
sbag1
(g2
g3
Ntp2024
Rp2025
(dp2026
g7
L6066348698068058112L
sbag1
(g2
g3
Ntp2027
Rp2028
(dp2029
g7
L6075355897322799104L
sbag1
(g2
g3
Ntp2030
Rp2031
(dp2032
g7
L6084363096577540096L
sbag1
(g2
g3
Ntp2033
Rp2034
(dp2035
g7
L6093370295832281088L
sbag1
(g2
g3
Ntp2036
Rp2037
(dp2038
g7
L6102377495087022080L
sbag1
(g2
g3
Ntp2039
Rp2040
(dp2041
g7
L6111384694341763072L
sbag1
(g2
g3
Ntp2042
Rp2043
(dp2044
g7
L6120391893596504064L
sbag1
(g2
g3
Ntp2045
Rp2046
(dp2047
g7
L6129399092851245056L
sbag1
(g2
g3
Ntp2048
Rp2049
(dp2050
g7
L6138406292105986048L
sbag1
(g2
g3
Ntp2051
Rp2052
(dp2053
g7
L6147413491360727040L
sbag1
(g2
g3
Ntp2054
Rp2055
(dp2056
g7
L6156420690615468032L
sbag1
(g2
g3
Ntp2057
Rp2058
(dp2059
g7
L6165427889870209024L
sbag1
(g2
g3
Ntp2060
Rp2061
(dp2062
g7
L6174435089124950016L
sbag1
(g2
g3
Ntp2063
Rp2064
(dp2065
g7
L6183442288379691008L
sbag1
(g2
g3
Ntp2066
Rp2067
(dp2068
g7
L6192449487634432000L
sbag1
(g2
g3
Ntp2069
Rp2070
(dp2071
g7
L6201456686889172992L
sbag1
(g2
g3
Ntp2072
Rp2073
(dp2074
g7
L6210463886143913984L
sbag1
(g2
g3
Ntp2075
Rp2076
(dp2077
g7
L6219471085398654976L
sbag1
(g2
g3
Ntp2078
Rp2079
(dp2080
g7
L6228478284653395968L
sbag1
(g2
g3
Ntp2081
Rp2082
(dp2083
g7
L6237485483908136960L
sbag1
(g2
g3
Ntp2084
Rp2085
(dp2086
g7
L6246492683162877952L
sbag1
(g2
g3
Ntp2087
Rp2088
(dp2089
g7
L6255499882417618944L
sbag1
(g2
g3
Ntp2090
Rp2091
(dp2092
g7
L6264507081672359936L
sbag1
(g2
g3
Ntp2093
Rp2094
(dp2095
g7
L6273514280927100928L
sbag1
(g2
g3
Ntp2096
Rp2097
(dp2098
g7
L6282521480181841920L
sbag1
(g2
g3
Ntp2099
Rp2100
(dp2101
g7
L6291528679436582912L
sbag1
(g2
g3
Ntp2102
Rp2103
(dp2104
g7
L6300535878691323904L
sbag1
(g2
g3
Ntp2105
Rp2106
(dp2107
g7
L6309543077946064896L
sbag1
(g2
g3
Ntp2108
Rp2109
(dp2110
g7
L6318550277200805888L
sbag1
(g2
g3
Ntp2111
Rp2112
(dp2113
g7
L6327557476455546880L
sbag1
(g2
g3
Ntp2114
Rp2115
(dp2116
g7
L6336564675710287872L
sbag1
(g2
g3
Ntp2117
Rp2118
(dp2119
g7
L6345571874965028864L
sbag1
(g2
g3
Ntp2120
Rp2121
(dp2122
g7
L6354579074219769856L
sbag1
(g2
g3
Ntp2123
Rp2124
(dp2125
g7
L6363586273474510848L
sbag1
(g2
g3
Ntp2126
Rp2127
(dp2128
g7
L6372593472729251840L
sbag1
(g2
g3
Ntp2129
Rp2130
(dp2131
g7
L6381600671983992832L
sbag1
(g2
g3
Ntp2132
Rp2133
(dp2134
g7
L6390607871238733824L
sbag1
(g2
g3
Ntp2135
Rp2136
(dp2137
g7
L6399615070493474816L
sbag1
(g2
g3
Ntp2138
Rp2139
(dp2140
g7
L6408622269748215808L
sbag1
(g2
g3
Ntp2141
Rp2142
(dp2143
g7
L6417629469002956800L
sbag1
(g2
g3
Ntp2144
Rp2145
(dp2146
g7
L6426636668257697792L
sbag1
(g2
g3
Ntp2147
Rp2148
(dp2149
g7
L6435643867512438784L
sbag1
(g2
g3
Ntp2150
Rp2151
(dp2152
g7
L6444651066767179776L
sbag1
(g2
g3
Ntp2153
Rp2154
(dp2155
g7
L6453658266021920768L
sbag1
(g2
g3
Ntp2156
Rp2157
(dp2158
g7
L6462665465276661760L
sbag1
(g2
g3
Ntp2159
Rp2160
(dp2161
g7
L6471672664531402752L
sbag1
(g2
g3
Ntp2162
Rp2163
(dp2164
g7
L6480679863786143744L
sbag1
(g2
g3
Ntp2165
Rp2166
(dp2167
g7
L6489687063040884736L
sbag1
(g2
g3
Ntp2168
Rp2169
(dp2170
g7
L6498694262295625728L
sbag1
(g2
g3
Ntp2171
Rp2172
(dp2173
g7
L6507701461550366720L
sbag1
(g2
g3
Ntp2174
Rp2175
(dp2176
g7
L6516708660805107712L
sbag1
(g2
g3
Ntp2177
Rp2178
(dp2179
g7
L6525715860059848704L
sbag1
(g2
g3
Ntp2180
Rp2181
(dp2182
g7
L6534723059314589696L
sbag1
(g2
g3
Ntp2183
Rp2184
(dp2185
g7
L6543730258569330688L
sbag1
(g2
g3
Ntp2186
Rp2187
(dp2188
g7
L6552737457824071680L
sbag1
(g2
g3
Ntp2189
Rp2190
(dp2191
g7
L6561744657078812672L
sbag1
(g2
g3
Ntp2192
Rp2193
(dp2194
g7
L6570751856333553664L
sbag1
(g2
g3
Ntp2195
Rp2196
(dp2197
g7
L6579759055588294656L
sbag1
(g2
g3
Ntp2198
Rp2199
(dp2200
g7
L6588766254843035648L
sbag1
(g2
g3
Ntp2201
Rp2202
(dp2203
g7
L6597773454097776640L
sbag1
(g2
g3
Ntp2204
Rp2205
(dp2206
g7
L6606780653352517632L
sbag1
(g2
g3
Ntp2207
Rp2208
(dp2209
g7
L6615787852607258624L
sbag1
(g2
g3
Ntp2210
Rp2211
(dp2212
g7
L6624795051861999616L
sbag1
(g2
g3
Ntp2213
Rp2214
(dp2215
g7
L6633802251116740608L
sbag1
(g2
g3
Ntp2216
Rp2217
(dp2218
g7
L6642809450371481600L
sbag1
(g2
g3
Ntp2219
Rp2220
(dp2221
g7
L6651816649626222592L
sbag1
(g2
g3
Ntp2222
Rp2223
(dp2224
g7
L6660823848880963584L
sbag1
(g2
g3
Ntp2225
Rp2226
(dp2227
g7
L6669831048135704576L
sbag1
(g2
g3
Ntp2228
Rp2229
(dp2230
g7
L6678838247390445568L
sbag1
(g2
g3
Ntp2231
Rp2232
(dp2233
g7
L6687845446645186560L
sbag1
(g2
g3
Ntp2234
Rp2235
(dp2236
g7
L6696852645899927552L
sbag1
(g2
g3
Ntp2237
Rp2238
(dp2239
g7
L6705859845154668544L
sbag1
(g2
g3
Ntp2240
Rp2241
(dp2242
g7
L6714867044409409536L
sbag1
(g2
g3
Ntp2243
Rp2244
(dp2245
g7
L6723874243664150528L
sbag1
(g2
g3
Ntp2246
Rp2247
(dp2248
g7
L6732881442918891520L
sbag1
(g2
g3
Ntp2249
Rp2250
(dp2251
g7
L6741888642173632512L
sbag1
(g2
g3
Ntp2252
Rp2253
(dp2254
g7
L6750895841428373504L
sbag1
(g2
g3
Ntp2255
Rp2256
(dp2257
g7
L6759903040683114496L
sbag1
(g2
g3
Ntp2258
Rp2259
(dp2260
g7
L6768910239937855488L
sbag1
(g2
g3
Ntp2261
Rp2262
(dp2263
g7
L6777917439192596480L
sbag1
(g2
g3
Ntp2264
Rp2265
(dp2266
g7
L6786924638447337472L
sbag1
(g2
g3
Ntp2267
Rp2268
(dp2269
g7
L6795931837702078464L
sbag1
(g2
g3
Ntp2270
Rp2271
(dp2272
g7
L6804939036956819456L
sbag1
(g2
g3
Ntp2273
Rp2274
(dp2275
g7
L6813946236211560448L
sbag1
(g2
g3
Ntp2276
Rp2277
(dp2278
g7
L6822953435466301440L
sbag1
(g2
g3
Ntp2279
Rp2280
(dp2281
g7
L6831960634721042432L
sbag1
(g2
g3
Ntp2282
Rp2283
(dp2284
g7
L6840967833975783424L
sbag1
(g2
g3
Ntp2285
Rp2286
(dp2287
g7
L6849975033230524416L
sbag1
(g2
g3
Ntp2288
Rp2289
(dp2290
g7
L6858982232485265408L
sbag1
(g2
g3
Ntp2291
Rp2292
(dp2293
g7
L6867989431740006400L
sbag1
(g2
g3
Ntp2294
Rp2295
(dp2296
g7
L6876996630994747392L
sbag1
(g2
g3
Ntp2297
Rp2298
(dp2299
g7
L6886003830249488384L
sbag1
(g2
g3
Ntp2300
Rp2301
(dp2302
g7
L6895011029504229376L
sbag1
(g2
g3
Ntp2303
Rp2304
(dp2305
g7
L6904018228758970368L
sbag1
(g2
g3
Ntp2306
Rp2307
(dp2308
g7
L6913025428013711360L
sbag1
(g2
g3
Ntp2309
Rp2310
(dp2311
g7
L6922032627268452352L
sbag1
(g2
g3
Ntp2312
Rp2313
(dp2314
g7
L6931039826523193344L
sbag1
(g2
g3
Ntp2315
Rp2316
(dp2317
g7
L6940047025777934336L
sbag1
(g2
g3
Ntp2318
Rp2319
(dp2320
g7
L6949054225032675328L
sbag1
(g2
g3
Ntp2321
Rp2322
(dp2323
g7
L6958061424287416320L
sbag1
(g2
g3
Ntp2324
Rp2325
(dp2326
g7
L6967068623542157312L
sbag1
(g2
g3
Ntp2327
Rp2328
(dp2329
g7
L6976075822796898304L
sbag1
(g2
g3
Ntp2330
Rp2331
(dp2332
g7
L6985083022051639296L
sbag1
(g2
g3
Ntp2333
Rp2334
(dp2335
g7
L6994090221306380288L
sbag1
(g2
g3
Ntp2336
Rp2337
(dp2338
g7
L7003097420561121280L
sbag1
(g2
g3
Ntp2339
Rp2340
(dp2341
g7
L7012104619815862272L
sbag1
(g2
g3
Ntp2342
Rp2343
(dp2344
g7
L7021111819070603264L
sbag1
(g2
g3
Ntp2345
Rp2346
(dp2347
g7
L7030119018325344256L
sbag1
(g2
g3
Ntp2348
Rp2349
(dp2350
g7
L7039126217580085248L
sbag1
(g2
g3
Ntp2351
Rp2352
(dp2353
g7
L7048133416834826240L
sbag1
(g2
g3
Ntp2354
Rp2355
(dp2356
g7
L7057140616089567232L
sbag1
(g2
g3
Ntp2357
Rp2358
(dp2359
g7
L7066147815344308224L
sbag1
(g2
g3
Ntp2360
Rp2361
(dp2362
g7
L7075155014599049216L
sbag1
(g2
g3
Ntp2363
Rp2364
(dp2365
g7
L7084162213853790208L
sbag1
(g2
g3
Ntp2366
Rp2367
(dp2368
g7
L7093169413108531200L
sbag1
(g2
g3
Ntp2369
Rp2370
(dp2371
g7
L7102176612363272192L
sbag1
(g2
g3
Ntp2372
Rp2373
(dp2374
g7
L7111183811618013184L
sbag1
(g2
g3
Ntp2375
Rp2376
(dp2377
g7
L7120191010872754176L
sbag1
(g2
g3
Ntp2378
Rp2379
(dp2380
g7
L7129198210127495168L
sbag1
(g2
g3
Ntp2381
Rp2382
(dp2383
g7
L7138205409382236160L
sbag1
(g2
g3
Ntp2384
Rp2385
(dp2386
g7
L7147212608636977152L
sbag1
(g2
g3
Ntp2387
Rp2388
(dp2389
g7
L7156219807891718144L
sbag1
(g2
g3
Ntp2390
Rp2391
(dp2392
g7
L7165227007146459136L
sbag1
(g2
g3
Ntp2393
Rp2394
(dp2395
g7
L7174234206401200128L
sbag1
(g2
g3
Ntp2396
Rp2397
(dp2398
g7
L7183241405655941120L
sbag1
(g2
g3
Ntp2399
Rp2400
(dp2401
g7
L7192248604910682112L
sbag1
(g2
g3
Ntp2402
Rp2403
(dp2404
g7
L7201255804165423104L
sbag1
(g2
g3
Ntp2405
Rp2406
(dp2407
g7
L7210263003420164096L
sbag1
(g2
g3
Ntp2408
Rp2409
(dp2410
g7
L7219270202674905088L
sbag1
(g2
g3
Ntp2411
Rp2412
(dp2413
g7
L7228277401929646080L
sbag1
(g2
g3
Ntp2414
Rp2415
(dp2416
g7
L7237284601184387072L
sbag1
(g2
g3
Ntp2417
Rp2418
(dp2419
g7
L7246291800439128064L
sbag1
(g2
g3
Ntp2420
Rp2421
(dp2422
g7
L7255298999693869056L
sbag1
(g2
g3
Ntp2423
Rp2424
(dp2425
g7
L7264306198948610048L
sbag1
(g2
g3
Ntp2426
Rp2427
(dp2428
g7
L7273313398203351040L
sbag1
(g2
g3
Ntp2429
Rp2430
(dp2431
g7
L7282320597458092032L
sbag1
(g2
g3
Ntp2432
Rp2433
(dp2434
g7
L7291327796712833024L
sbag1
(g2
g3
Ntp2435
Rp2436
(dp2437
g7
L7300334995967574016L
sbag1
(g2
g3
Ntp2438
Rp2439
(dp2440
g7
L7309342195222315008L
sbag1
(g2
g3
Ntp2441
Rp2442
(dp2443
g7
L7318349394477056000L
sbag1
(g2
g3
Ntp2444
Rp2445
(dp2446
g7
L7327356593731796992L
sbag1
(g2
g3
Ntp2447
Rp2448
(dp2449
g7
L7336363792986537984L
sbag1
(g2
g3
Ntp2450
Rp2451
(dp2452
g7
L7345370992241278976L
sbag1
(g2
g3
Ntp2453
Rp2454
(dp2455
g7
L7354378191496019968L
sbag1
(g2
g3
Ntp2456
Rp2457
(dp2458
g7
L7363385390750760960L
sbag1
(g2
g3
Ntp2459
Rp2460
(dp2461
g7
L7372392590005501952L
sbag1
(g2
g3
Ntp2462
Rp2463
(dp2464
g7
L7381399789260242944L
sbag1
(g2
g3
Ntp2465
Rp2466
(dp2467
g7
L7390406988514983936L
sbag1
(g2
g3
Ntp2468
Rp2469
(dp2470
g7
L7399414187769724928L
sbag1
(g2
g3
Ntp2471
Rp2472
(dp2473
g7
L7408421387024465920L
sbag1
(g2
g3
Ntp2474
Rp2475
(dp2476
g7
L7417428586279206912L
sbag1
(g2
g3
Ntp2477
Rp2478
(dp2479
g7
L7426435785533947904L
sbag1
(g2
g3
Ntp2480
Rp2481
(dp2482
g7
L7435442984788688896L
sbag1
(g2
g3
Ntp2483
Rp2484
(dp2485
g7
L7444450184043429888L
sbag1
(g2
g3
Ntp2486
Rp2487
(dp2488
g7
L7453457383298170880L
sbag1
(g2
g3
Ntp2489
Rp2490
(dp2491
g7
L7462464582552911872L
sbag1
(g2
g3
Ntp2492
Rp2493
(dp2494
g7
L7471471781807652864L
sbag1
(g2
g3
Ntp2495
Rp2496
(dp2497
g7
L7480478981062393856L
sbag1
(g2
g3
Ntp2498
Rp2499
(dp2500
g7
L7489486180317134848L
sbag1
(g2
g3
Ntp2501
Rp2502
(dp2503
g7
L7498493379571875840L
sbag1
(g2
g3
Ntp2504
Rp2505
(dp2506
g7
L7507500578826616832L
sbag1
(g2
g3
Ntp2507
Rp2508
(dp2509
g7
L7516507778081357824L
sbag1
(g2
g3
Ntp2510
Rp2511
(dp2512
g7
L7525514977336098816L
sbag1
(g2
g3
Ntp2513
Rp2514
(dp2515
g7
L7534522176590839808L
sbag1
(g2
g3
Ntp2516
Rp2517
(dp2518
g7
L7543529375845580800L
sbag1
(g2
g3
Ntp2519
Rp2520
(dp2521
g7
L7552536575100321792L
sbag1
(g2
g3
Ntp2522
Rp2523
(dp2524
g7
L7561543774355062784L
sbag1
(g2
g3
Ntp2525
Rp2526
(dp2527
g7
L7570550973609803776L
sbag1
(g2
g3
Ntp2528
Rp2529
(dp2530
g7
L7579558172864544768L
sbag1
(g2
g3
Ntp2531
Rp2532
(dp2533
g7
L7588565372119285760L
sbag1
(g2
g3
Ntp2534
Rp2535
(dp2536
g7
L7597572571374026752L
sbag1
(g2
g3
Ntp2537
Rp2538
(dp2539
g7
L7606579770628767744L
sbag1
(g2
g3
Ntp2540
Rp2541
(dp2542
g7
L7615586969883508736L
sbag1
(g2
g3
Ntp2543
Rp2544
(dp2545
g7
L7624594169138249728L
sbag1
(g2
g3
Ntp2546
Rp2547
(dp2548
g7
L7633601368392990720L
sbag1
(g2
g3
Ntp2549
Rp2550
(dp2551
g7
L7642608567647731712L
sbag1
(g2
g3
Ntp2552
Rp2553
(dp2554
g7
L7651615766902472704L
sbag1
(g2
g3
Ntp2555
Rp2556
(dp2557
g7
L7660622966157213696L
sbag1
(g2
g3
Ntp2558
Rp2559
(dp2560
g7
L7669630165411954688L
sbag1
(g2
g3
Ntp2561
Rp2562
(dp2563
g7
L7678637364666695680L
sbag1
(g2
g3
Ntp2564
Rp2565
(dp2566
g7
L7687644563921436672L
sbag1
(g2
g3
Ntp2567
Rp2568
(dp2569
g7
L7696651763176177664L
sbag1
(g2
g3
Ntp2570
Rp2571
(dp2572
g7
L7705658962430918656L
sbag1
(g2
g3
Ntp2573
Rp2574
(dp2575
g7
L7714666161685659648L
sbag1
(g2
g3
Ntp2576
Rp2577
(dp2578
g7
L7723673360940400640L
sbag1
(g2
g3
Ntp2579
Rp2580
(dp2581
g7
L7732680560195141632L
sbag1
(g2
g3
Ntp2582
Rp2583
(dp2584
g7
L7741687759449882624L
sbag1
(g2
g3
Ntp2585
Rp2586
(dp2587
g7
L7750694958704623616L
sbag1
(g2
g3
Ntp2588
Rp2589
(dp2590
g7
L7759702157959364608L
sbag1
(g2
g3
Ntp2591
Rp2592
(dp2593
g7
L7768709357214105600L
sbag1
(g2
g3
Ntp2594
Rp2595
(dp2596
g7
L7777716556468846592L
sbag1
(g2
g3
Ntp2597
Rp2598
(dp2599
g7
L7786723755723587584L
sbag1
(g2
g3
Ntp2600
Rp2601
(dp2602
g7
L7795730954978328576L
sbag1
(g2
g3
Ntp2603
Rp2604
(dp2605
g7
L7804738154233069568L
sbag1
(g2
g3
Ntp2606
Rp2607
(dp2608
g7
L7813745353487810560L
sbag1
(g2
g3
Ntp2609
Rp2610
(dp2611
g7
L7822752552742551552L
sbag1
(g2
g3
Ntp2612
Rp2613
(dp2614
g7
L7831759751997292544L
sbag1
(g2
g3
Ntp2615
Rp2616
(dp2617
g7
L7840766951252033536L
sbag1
(g2
g3
Ntp2618
Rp2619
(dp2620
g7
L7849774150506774528L
sbag1
(g2
g3
Ntp2621
Rp2622
(dp2623
g7
L7858781349761515520L
sbag1
(g2
g3
Ntp2624
Rp2625
(dp2626
g7
L7867788549016256512L
sbag1
(g2
g3
Ntp2627
Rp2628
(dp2629
g7
L7876795748270997504L
sbag1
(g2
g3
Ntp2630
Rp2631
(dp2632
g7
L7885802947525738496L
sbag1
(g2
g3
Ntp2633
Rp2634
(dp2635
g7
L7894810146780479488L
sbag1
(g2
g3
Ntp2636
Rp2637
(dp2638
g7
L7903817346035220480L
sbag1
(g2
g3
Ntp2639
Rp2640
(dp2641
g7
L7912824545289961472L
sbag1
(g2
g3
Ntp2642
Rp2643
(dp2644
g7
L7921831744544702464L
sbag1
(g2
g3
Ntp2645
Rp2646
(dp2647
g7
L7930838943799443456L
sbag1
(g2
g3
Ntp2648
Rp2649
(dp2650
g7
L7939846143054184448L
sbag1
(g2
g3
Ntp2651
Rp2652
(dp2653
g7
L7948853342308925440L
sbag1
(g2
g3
Ntp2654
Rp2655
(dp2656
g7
L7957860541563666432L
sbag1
(g2
g3
Ntp2657
Rp2658
(dp2659
g7
L7966867740818407424L
sbag1
(g2
g3
Ntp2660
Rp2661
(dp2662
g7
L7975874940073148416L
sbag1
(g2
g3
Ntp2663
Rp2664
(dp2665
g7
L7984882139327889408L
sbag1
(g2
g3
Ntp2666
Rp2667
(dp2668
g7
L7993889338582630400L
sbag1
(g2
g3
Ntp2669
Rp2670
(dp2671
g7
L8002896537837371392L
sbag1
(g2
g3
Ntp2672
Rp2673
(dp2674
g7
L8011903737092112384L
sbag1
(g2
g3
Ntp2675
Rp2676
(dp2677
g7
L8020910936346853376L
sbag1
(g2
g3
Ntp2678
Rp2679
(dp2680
g7
L8029918135601594368L
sbag1
(g2
g3
Ntp2681
Rp2682
(dp2683
g7
L8038925334856335360L
sbag1
(g2
g3
Ntp2684
Rp2685
(dp2686
g7
L8047932534111076352L
sbag1
(g2
g3
Ntp2687
Rp2688
(dp2689
g7
L8056939733365817344L
sbag1
(g2
g3
Ntp2690
Rp2691
(dp2692
g7
L8065946932620558336L
sbag1
(g2
g3
Ntp2693
Rp2694
(dp2695
g7
L8074954131875299328L
sbag1
(g2
g3
Ntp2696
Rp2697
(dp2698
g7
L8083961331130040320L
sbag1
(g2
g3
Ntp2699
Rp2700
(dp2701
g7
L8092968530384781312L
sbag1
(g2
g3
Ntp2702
Rp2703
(dp2704
g7
L8101975729639522304L
sbag1
(g2
g3
Ntp2705
Rp2706
(dp2707
g7
L8110982928894263296L
sbag1
(g2
g3
Ntp2708
Rp2709
(dp2710
g7
L8119990128149004288L
sbag1
(g2
g3
Ntp2711
Rp2712
(dp2713
g7
L8128997327403745280L
sbag1
(g2
g3
Ntp2714
Rp2715
(dp2716
g7
L8138004526658486272L
sbag1
(g2
g3
Ntp2717
Rp2718
(dp2719
g7
L8147011725913227264L
sbag1
(g2
g3
Ntp2720
Rp2721
(dp2722
g7
L8156018925167968256L
sbag1
(g2
g3
Ntp2723
Rp2724
(dp2725
g7
L8165026124422709248L
sbag1
(g2
g3
Ntp2726
Rp2727
(dp2728
g7
L8174033323677450240L
sbag1
(g2
g3
Ntp2729
Rp2730
(dp2731
g7
L8183040522932191232L
sbag1
(g2
g3
Ntp2732
Rp2733
(dp2734
g7
L8192047722186932224L
sbag1
(g2
g3
Ntp2735
Rp2736
(dp2737
g7
L8201054921441673216L
sbag1
(g2
g3
Ntp2738
Rp2739
(dp2740
g7
L8210062120696414208L
sbag1
(g2
g3
Ntp2741
Rp2742
(dp2743
g7
L8219069319951155200L
sbag1
(g2
g3
Ntp2744
Rp2745
(dp2746
g7
L8228076519205896192L
sbag1
(g2
g3
Ntp2747
Rp2748
(dp2749
g7
L8237083718460637184L
sbag1
(g2
g3
Ntp2750
Rp2751
(dp2752
g7
L8246090917715378176L
sbag1
(g2
g3
Ntp2753
Rp2754
(dp2755
g7
L8255098116970119168L
sbag1
(g2
g3
Ntp2756
Rp2757
(dp2758
g7
L8264105316224860160L
sbag1
(g2
g3
Ntp2759
Rp2760
(dp2761
g7
L8273112515479601152L
sbag1
(g2
g3
Ntp2762
Rp2763
(dp2764
g7
L8282119714734342144L
sbag1
(g2
g3
Ntp2765
Rp2766
(dp2767
g7
L8291126913989083136L
sbag1
(g2
g3
Ntp2768
Rp2769
(dp2770
g7
L8300134113243824128L
sbag1
(g2
g3
Ntp2771
Rp2772
(dp2773
g7
L8309141312498565120L
sbag1
(g2
g3
Ntp2774
Rp2775
(dp2776
g7
L8318148511753306112L
sbag1
(g2
g3
Ntp2777
Rp2778
(dp2779
g7
L8327155711008047104L
sbag1
(g2
g3
Ntp2780
Rp2781
(dp2782
g7
L8336162910262788096L
sbag1
(g2
g3
Ntp2783
Rp2784
(dp2785
g7
L8345170109517529088L
sbag1
(g2
g3
Ntp2786
Rp2787
(dp2788
g7
L8354177308772270080L
sbag1
(g2
g3
Ntp2789
Rp2790
(dp2791
g7
L8363184508027011072L
sbag1
(g2
g3
Ntp2792
Rp2793
(dp2794
g7
L8372191707281752064L
sbag1
(g2
g3
Ntp2795
Rp2796
(dp2797
g7
L8381198906536493056L
sbag1
(g2
g3
Ntp2798
Rp2799
(dp2800
g7
L8390206105791234048L
sbag1
(g2
g3
Ntp2801
Rp2802
(dp2803
g7
L8399213305045975040L
sbag1
(g2
g3
Ntp2804
Rp2805
(dp2806
g7
L8408220504300716032L
sbag1
(g2
g3
Ntp2807
Rp2808
(dp2809
g7
L8417227703555457024L
sbag1
(g2
g3
Ntp2810
Rp2811
(dp2812
g7
L8426234902810198016L
sbag1
(g2
g3
Ntp2813
Rp2814
(dp2815
g7
L8435242102064939008L
sbag1
(g2
g3
Ntp2816
Rp2817
(dp2818
g7
L8444249301319680000L
sbag1
(g2
g3
Ntp2819
Rp2820
(dp2821
g7
L8453256500574420992L
sbag1
(g2
g3
Ntp2822
Rp2823
(dp2824
g7
L8462263699829161984L
sbag1
(g2
g3
Ntp2825
Rp2826
(dp2827
g7
L8471270899083902976L
sbag1
(g2
g3
Ntp2828
Rp2829
(dp2830
g7
L8480278098338643968L
sbag1
(g2
g3
Ntp2831
Rp2832
(dp2833
g7
L8489285297593384960L
sbag1
(g2
g3
Ntp2834
Rp2835
(dp2836
g7
L8498292496848125952L
sbag1
(g2
g3
Ntp2837
Rp2838
(dp2839
g7
L8507299696102866944L
sbag1
(g2
g3
Ntp2840
Rp2841
(dp2842
g7
L8516306895357607936L
sbag1
(g2
g3
Ntp2843
Rp2844
(dp2845
g7
L8525314094612348928L
sbag1
(g2
g3
Ntp2846
Rp2847
(dp2848
g7
L8534321293867089920L
sbag1
(g2
g3
Ntp2849
Rp2850
(dp2851
g7
L8543328493121830912L
sbag1
(g2
g3
Ntp2852
Rp2853
(dp2854
g7
L8552335692376571904L
sbag1
(g2
g3
Ntp2855
Rp2856
(dp2857
g7
L8561342891631312896L
sbag1
(g2
g3
Ntp2858
Rp2859
(dp2860
g7
L8570350090886053888L
sbag1
(g2
g3
Ntp2861
Rp2862
(dp2863
g7
L8579357290140794880L
sbag1
(g2
g3
Ntp2864
Rp2865
(dp2866
g7
L8588364489395535872L
sbag1
(g2
g3
Ntp2867
Rp2868
(dp2869
g7
L8597371688650276864L
sbag1
(g2
g3
Ntp2870
Rp2871
(dp2872
g7
L8606378887905017856L
sbag1
(g2
g3
Ntp2873
Rp2874
(dp2875
g7
L8615386087159758848L
sbag1
(g2
g3
Ntp2876
Rp2877
(dp2878
g7
L8624393286414499840L
sbag1
(g2
g3
Ntp2879
Rp2880
(dp2881
g7
L8633400485669240832L
sbag1
(g2
g3
Ntp2882
Rp2883
(dp2884
g7
L8642407684923981824L
sbag1
(g2
g3
Ntp2885
Rp2886
(dp2887
g7
L8651414884178722816L
sbag1
(g2
g3
Ntp2888
Rp2889
(dp2890
g7
L8660422083433463808L
sbag1
(g2
g3
Ntp2891
Rp2892
(dp2893
g7
L8669429282688204800L
sbag1
(g2
g3
Ntp2894
Rp2895
(dp2896
g7
L8678436481942945792L
sbag1
(g2
g3
Ntp2897
Rp2898
(dp2899
g7
L8687443681197686784L
sbag1
(g2
g3
Ntp2900
Rp2901
(dp2902
g7
L8696450880452427776L
sbag1
(g2
g3
Ntp2903
Rp2904
(dp2905
g7
L8705458079707168768L
sbag1
(g2
g3
Ntp2906
Rp2907
(dp2908
g7
L8714465278961909760L
sbag1
(g2
g3
Ntp2909
Rp2910
(dp2911
g7
L8723472478216650752L
sbag1
(g2
g3
Ntp2912
Rp2913
(dp2914
g7
L8732479677471391744L
sbag1
(g2
g3
Ntp2915
Rp2916
(dp2917
g7
L8741486876726132736L
sbag1
(g2
g3
Ntp2918
Rp2919
(dp2920
g7
L8750494075980873728L
sbag1
(g2
g3
Ntp2921
Rp2922
(dp2923
g7
L8759501275235614720L
sbag1
(g2
g3
Ntp2924
Rp2925
(dp2926
g7
L8768508474490355712L
sbag1
(g2
g3
Ntp2927
Rp2928
(dp2929
g7
L8777515673745096704L
sbag1
(g2
g3
Ntp2930
Rp2931
(dp2932
g7
L8786522872999837696L
sbag1
(g2
g3
Ntp2933
Rp2934
(dp2935
g7
L8795530072254578688L
sbag1
(g2
g3
Ntp2936
Rp2937
(dp2938
g7
L8804537271509319680L
sbag1
(g2
g3
Ntp2939
Rp2940
(dp2941
g7
L8813544470764060672L
sbag1
(g2
g3
Ntp2942
Rp2943
(dp2944
g7
L8822551670018801664L
sbag1
(g2
g3
Ntp2945
Rp2946
(dp2947
g7
L8831558869273542656L
sbag1
(g2
g3
Ntp2948
Rp2949
(dp2950
g7
L8840566068528283648L
sbag1
(g2
g3
Ntp2951
Rp2952
(dp2953
g7
L8849573267783024640L
sbag1
(g2
g3
Ntp2954
Rp2955
(dp2956
g7
L8858580467037765632L
sbag1
(g2
g3
Ntp2957
Rp2958
(dp2959
g7
L8867587666292506624L
sbag1
(g2
g3
Ntp2960
Rp2961
(dp2962
g7
L8876594865547247616L
sbag1
(g2
g3
Ntp2963
Rp2964
(dp2965
g7
L8885602064801988608L
sbag1
(g2
g3
Ntp2966
Rp2967
(dp2968
g7
L8894609264056729600L
sbag1
(g2
g3
Ntp2969
Rp2970
(dp2971
g7
L8903616463311470592L
sbag1
(g2
g3
Ntp2972
Rp2973
(dp2974
g7
L8912623662566211584L
sbag1
(g2
g3
Ntp2975
Rp2976
(dp2977
g7
L8921630861820952576L
sbag1
(g2
g3
Ntp2978
Rp2979
(dp2980
g7
L8930638061075693568L
sbag1
(g2
g3
Ntp2981
Rp2982
(dp2983
g7
L8939645260330434560L
sbag1
(g2
g3
Ntp2984
Rp2985
(dp2986
g7
L8948652459585175552L
sbag1
(g2
g3
Ntp2987
Rp2988
(dp2989
g7
L8957659658839916544L
sbag1
(g2
g3
Ntp2990
Rp2991
(dp2992
g7
L8966666858094657536L
sbag1
(g2
g3
Ntp2993
Rp2994
(dp2995
g7
L8975674057349398528L
sbag1
(g2
g3
Ntp2996
Rp2997
(dp2998
g7
L8984681256604139520L
sbag1
(g2
g3
Ntp2999
Rp3000
(dp3001
g7
L8993688455858880512L
sbag1
(g2
g3
Ntp3002
Rp3003
(dp3004
g7
L9002695655113621504L
sbag1
(g2
g3
Ntp3005
Rp3006
(dp3007
g7
L9011702854368362496L
sbag1
(g2
g3
Ntp3008
Rp3009
(dp3010
g7
L9020710053623103488L
sbag1
(g2
g3
Ntp3011
Rp3012
(dp3013
g7
L9029717252877844480L
sbag1
(g2
g3
Ntp3014
Rp3015
(dp3016
g7
L9038724452132585472L
sbag1
(g2
g3
Ntp3017
Rp3018
(dp3019
g7
L9047731651387326464L
sbag1
(g2
g3
Ntp3020
Rp3021
(dp3022
g7
L9056738850642067456L
sbag1
(g2
g3
Ntp3023
Rp3024
(dp3025
g7
L9065746049896808448L
sbag1
(g2
g3
Ntp3026
Rp3027
(dp3028
g7
L9074753249151549440L
sbag1
(g2
g3
Ntp3029
Rp3030
(dp3031
g7
L9083760448406290432L
sbag1
(g2
g3
Ntp3032
Rp3033
(dp3034
g7
L9092767647661031424L
sbag1
(g2
g3
Ntp3035
Rp3036
(dp3037
g7
L9101774846915772416L
sbag1
(g2
g3
Ntp3038
Rp3039
(dp3040
g7
L9110782046170513408L
sbag1
(g2
g3
Ntp3041
Rp3042
(dp3043
g7
L9119789245425254400L
sbag1
(g2
g3
Ntp3044
Rp3045
(dp3046
g7
L9128796444679995392L
sbag1
(g2
g3
Ntp3047
Rp3048
(dp3049
g7
L9137803643934736384L
sbag1
(g2
g3
Ntp3050
Rp3051
(dp3052
g7
L9146810843189477376L
sbag1
(g2
g3
Ntp3053
Rp3054
(dp3055
g7
L9155818042444218368L
sbag1
(g2
g3
Ntp3056
Rp3057
(dp3058
g7
L9164825241698959360L
sbag1
(g2
g3
Ntp3059
Rp3060
(dp3061
g7
L9173832440953700352L
sbag1
(g2
g3
Ntp3062
Rp3063
(dp3064
g7
L9182839640208441344L
sbag1
(g2
g3
Ntp3065
Rp3066
(dp3067
g7
L9191846839463182336L
sbag1
(g2
g3
Ntp3068
Rp3069
(dp3070
g7
L9200854038717923328L
sbag1
(g2
g3
Ntp3071
Rp3072
(dp3073
g7
L9209861237972664320L
sbag1
(g2
g3
Ntp3074
Rp3075
(dp3076
g7
L9218868437227405312L
sbag1
(g2
g3
Ntp3077
Rp3078
(dp3079
g7
L9227875636482146304L
sbag1
(g2
g3
Ntp3080
Rp3081
(dp3082
g7
L9236882835736887296L
sbag1
(g2
g3
Ntp3083
Rp3084
(dp3085
g7
L9245890034991628288L
sbag1
(g2
g3
Ntp3086
Rp3087
(dp3088
g7
L9254897234246369280L
sbag1
(g2
g3
Ntp3089
Rp3090
(dp3091
g7
L9263904433501110272L
sbag1
(g2
g3
Ntp3092
Rp3093
(dp3094
g7
L9272911632755851264L
sbag1
(g2
g3
Ntp3095
Rp3096
(dp3097
g7
L9281918832010592256L
sbag1
(g2
g3
Ntp3098
Rp3099
(dp3100
g7
L9290926031265333248L
sbag1
(g2
g3
Ntp3101
Rp3102
(dp3103
g7
L9299933230520074240L
sbag1
(g2
g3
Ntp3104
Rp3105
(dp3106
g7
L9308940429774815232L
sbag1
(g2
g3
Ntp3107
Rp3108
(dp3109
g7
L9317947629029556224L
sbag1
(g2
g3
Ntp3110
Rp3111
(dp3112
g7
L9326954828284297216L
sbag1
(g2
g3
Ntp3113
Rp3114
(dp3115
g7
L9335962027539038208L
sbag1
(g2
g3
Ntp3116
Rp3117
(dp3118
g7
L9344969226793779200L
sbag1
(g2
g3
Ntp3119
Rp3120
(dp3121
g7
L9353976426048520192L
sbag1
(g2
g3
Ntp3122
Rp3123
(dp3124
g7
L9362983625303261184L
sbag1
(g2
g3
Ntp3125
Rp3126
(dp3127
g7
L9371990824558002176L
sbag1
(g2
g3
Ntp3128
Rp3129
(dp3130
g7
L9380998023812743168L
sbag1
(g2
g3
Ntp3131
Rp3132
(dp3133
g7
L9390005223067484160L
sbag1
(g2
g3
Ntp3134
Rp3135
(dp3136
g7
L9399012422322225152L
sbag1
(g2
g3
Ntp3137
Rp3138
(dp3139
g7
L9408019621576966144L
sbag1
(g2
g3
Ntp3140
Rp3141
(dp3142
g7
L9417026820831707136L
sbag1
(g2
g3
Ntp3143
Rp3144
(dp3145
g7
L9426034020086448128L
sbag1
(g2
g3
Ntp3146
Rp3147
(dp3148
g7
L9435041219341189120L
sbag1
(g2
g3
Ntp3149
Rp3150
(dp3151
g7
L9444048418595930112L
sbag1
(g2
g3
Ntp3152
Rp3153
(dp3154
g7
L9453055617850671104L
sbag1
(g2
g3
Ntp3155
Rp3156
(dp3157
g7
L9462062817105412096L
sbag1
(g2
g3
Ntp3158
Rp3159
(dp3160
g7
L9471070016360153088L
sbag1
(g2
g3
Ntp3161
Rp3162
(dp3163
g7
L9480077215614894080L
sbag1
(g2
g3
Ntp3164
Rp3165
(dp3166
g7
L9489084414869635072L
sbag1
(g2
g3
Ntp3167
Rp3168
(dp3169
g7
L9498091614124376064L
sbag1
(g2
g3
Ntp3170
Rp3171
(dp3172
g7
L9507098813379117056L
sbag1
(g2
g3
Ntp3173
Rp3174
(dp3175
g7
L9516106012633858048L
sbag1
(g2
g3
Ntp3176
Rp3177
(dp3178
g7
L9525113211888599040L
sbag1
(g2
g3
Ntp3179
Rp3180
(dp3181
g7
L9534120411143340032L
sbag1
(g2
g3
Ntp3182
Rp3183
(dp3184
g7
L9543127610398081024L
sbag1
(g2
g3
Ntp3185
Rp3186
(dp3187
g7
L9552134809652822016L
sbag1
(g2
g3
Ntp3188
Rp3189
(dp3190
g7
L9561142008907563008L
sbag1
(g2
g3
Ntp3191
Rp3192
(dp3193
g7
L9570149208162304000L
sbag1
(g2
g3
Ntp3194
Rp3195
(dp3196
g7
L9579156407417044992L
sbag1
(g2
g3
Ntp3197
Rp3198
(dp3199
g7
L9588163606671785984L
sbag1
(g2
g3
Ntp3200
Rp3201
(dp3202
g7
L9597170805926526976L
sbag1
(g2
g3
Ntp3203
Rp3204
(dp3205
g7
L9606178005181267968L
sbag1
(g2
g3
Ntp3206
Rp3207
(dp3208
g7
L9615185204436008960L
sbag1
(g2
g3
Ntp3209
Rp3210
(dp3211
g7
L9624192403690749952L
sbag1
(g2
g3
Ntp3212
Rp3213
(dp3214
g7
L9633199602945490944L
sbag1
(g2
g3
Ntp3215
Rp3216
(dp3217
g7
L9642206802200231936L
sbag1
(g2
g3
Ntp3218
Rp3219
(dp3220
g7
L9651214001454972928L
sbag1
(g2
g3
Ntp3221
Rp3222
(dp3223
g7
L9660221200709713920L
sbag1
(g2
g3
Ntp3224
Rp3225
(dp3226
g7
L9669228399964454912L
sbag1
(g2
g3
Ntp3227
Rp3228
(dp3229
g7
L9678235599219195904L
sbag1
(g2
g3
Ntp3230
Rp3231
(dp3232
g7
L9687242798473936896L
sbag1
(g2
g3
Ntp3233
Rp3234
(dp3235
g7
L9696249997728677888L
sbag1
(g2
g3
Ntp3236
Rp3237
(dp3238
g7
L9705257196983418880L
sbag1
(g2
g3
Ntp3239
Rp3240
(dp3241
g7
L9714264396238159872L
sbag1
(g2
g3
Ntp3242
Rp3243
(dp3244
g7
L9723271595492900864L
sbag1
(g2
g3
Ntp3245
Rp3246
(dp3247
g7
L9732278794747641856L
sbag1
(g2
g3
Ntp3248
Rp3249
(dp3250
g7
L9741285994002382848L
sbag1
(g2
g3
Ntp3251
Rp3252
(dp3253
g7
L9750293193257123840L
sbag1
(g2
g3
Ntp3254
Rp3255
(dp3256
g7
L9759300392511864832L
sbag1
(g2
g3
Ntp3257
Rp3258
(dp3259
g7
L9768307591766605824L
sbag1
(g2
g3
Ntp3260
Rp3261
(dp3262
g7
L9777314791021346816L
sbag1
(g2
g3
Ntp3263
Rp3264
(dp3265
g7
L9786321990276087808L
sbag1
(g2
g3
Ntp3266
Rp3267
(dp3268
g7
L9795329189530828800L
sbag1
(g2
g3
Ntp3269
Rp3270
(dp3271
g7
L9804336388785569792L
sbag1
(g2
g3
Ntp3272
Rp3273
(dp3274
g7
L9813343588040310784L
sbag1
(g2
g3
Ntp3275
Rp3276
(dp3277
g7
L9822350787295051776L
sbag1
(g2
g3
Ntp3278
Rp3279
(dp3280
g7
L9831357986549792768L
sbag1
(g2
g3
Ntp3281
Rp3282
(dp3283
g7
L9840365185804533760L
sbag1
(g2
g3
Ntp3284
Rp3285
(dp3286
g7
L9849372385059274752L
sbag1
(g2
g3
Ntp3287
Rp3288
(dp3289
g7
L9858379584314015744L
sbag1
(g2
g3
Ntp3290
Rp3291
(dp3292
g7
L9867386783568756736L
sbag1
(g2
g3
Ntp3293
Rp3294
(dp3295
g7
L9876393982823497728L
sbag1
(g2
g3
Ntp3296
Rp3297
(dp3298
g7
L9885401182078238720L
sbag1
(g2
g3
Ntp3299
Rp3300
(dp3301
g7
L9894408381332979712L
sbag1
(g2
g3
Ntp3302
Rp3303
(dp3304
g7
L9903415580587720704L
sbag1
(g2
g3
Ntp3305
Rp3306
(dp3307
g7
L9912422779842461696L
sbag1
(g2
g3
Ntp3308
Rp3309
(dp3310
g7
L9921429979097202688L
sbag1
(g2
g3
Ntp3311
Rp3312
(dp3313
g7
L9930437178351943680L
sbag1
(g2
g3
Ntp3314
Rp3315
(dp3316
g7
L9939444377606684672L
sbag1
(g2
g3
Ntp3317
Rp3318
(dp3319
g7
L9948451576861425664L
sbag1
(g2
g3
Ntp3320
Rp3321
(dp3322
g7
L9957458776116166656L
sbag1
(g2
g3
Ntp3323
Rp3324
(dp3325
g7
L9966465975370907648L
sbag1
(g2
g3
Ntp3326
Rp3327
(dp3328
g7
L9975473174625648640L
sbag1
(g2
g3
Ntp3329
Rp3330
(dp3331
g7
L9984480373880389632L
sbag1
(g2
g3
Ntp3332
Rp3333
(dp3334
g7
L9993487573135130624L
sbag1
(g2
g3
Ntp3335
Rp3336
(dp3337
g7
L10002494772389871616L
sbag1
(g2
g3
Ntp3338
Rp3339
(dp3340
g7
L10011501971644612608L
sbag1
(g2
g3
Ntp3341
Rp3342
(dp3343
g7
L10020509170899353600L
sbag1
(g2
g3
Ntp3344
Rp3345
(dp3346
g7
L10029516370154094592L
sbag1
(g2
g3
Ntp3347
Rp3348
(dp3349
g7
L10038523569408835584L
sbag1
(g2
g3
Ntp3350
Rp3351
(dp3352
g7
L10047530768663576576L
sbag1
(g2
g3
Ntp3353
Rp3354
(dp3355
g7
L10056537967918317568L
sbag1
(g2
g3
Ntp3356
Rp3357
(dp3358
g7
L10065545167173058560L
sbag1
(g2
g3
Ntp3359
Rp3360
(dp3361
g7
L10074552366427799552L
sbag1
(g2
g3
Ntp3362
Rp3363
(dp3364
g7
L10083559565682540544L
sbag1
(g2
g3
Ntp3365
Rp3366
(dp3367
g7
L10092566764937281536L
sbag1
(g2
g3
Ntp3368
Rp3369
(dp3370
g7
L10101573964192022528L
sbag1
(g2
g3
Ntp3371
Rp3372
(dp3373
g7
L10110581163446763520L
sbag1
(g2
g3
Ntp3374
Rp3375
(dp3376
g7
L10119588362701504512L
sbag1
(g2
g3
Ntp3377
Rp3378
(dp3379
g7
L10128595561956245504L
sbag1
(g2
g3
Ntp3380
Rp3381
(dp3382
g7
L10137602761210986496L
sbag1
(g2
g3
Ntp3383
Rp3384
(dp3385
g7
L10146609960465727488L
sbag1
(g2
g3
Ntp3386
Rp3387
(dp3388
g7
L10155617159720468480L
sbag1
(g2
g3
Ntp3389
Rp3390
(dp3391
g7
L10164624358975209472L
sbag1
(g2
g3
Ntp3392
Rp3393
(dp3394
g7
L10173631558229950464L
sbag1
(g2
g3
Ntp3395
Rp3396
(dp3397
g7
L10182638757484691456L
sbag1
(g2
g3
Ntp3398
Rp3399
(dp3400
g7
L10191645956739432448L
sbag1
(g2
g3
Ntp3401
Rp3402
(dp3403
g7
L10200653155994173440L
sbag1
(g2
g3
Ntp3404
Rp3405
(dp3406
g7
L10209660355248914432L
sbag1
(g2
g3
Ntp3407
Rp3408
(dp3409
g7
L10218667554503655424L
sbag1
(g2
g3
Ntp3410
Rp3411
(dp3412
g7
L10227674753758396416L
sbag1
(g2
g3
Ntp3413
Rp3414
(dp3415
g7
L10236681953013137408L
sbag1
(g2
g3
Ntp3416
Rp3417
(dp3418
g7
L10245689152267878400L
sbag1
(g2
g3
Ntp3419
Rp3420
(dp3421
g7
L10254696351522619392L
sbag1
(g2
g3
Ntp3422
Rp3423
(dp3424
g7
L10263703550777360384L
sbag1
(g2
g3
Ntp3425
Rp3426
(dp3427
g7
L10272710750032101376L
sbag1
(g2
g3
Ntp3428
Rp3429
(dp3430
g7
L10281717949286842368L
sbag1
(g2
g3
Ntp3431
Rp3432
(dp3433
g7
L10290725148541583360L
sbag1
(g2
g3
Ntp3434
Rp3435
(dp3436
g7
L10299732347796324352L
sbag1
(g2
g3
Ntp3437
Rp3438
(dp3439
g7
L10308739547051065344L
sbag1
(g2
g3
Ntp3440
Rp3441
(dp3442
g7
L10317746746305806336L
sbag1
(g2
g3
Ntp3443
Rp3444
(dp3445
g7
L10326753945560547328L
sbag1
(g2
g3
Ntp3446
Rp3447
(dp3448
g7
L10335761144815288320L
sbag1
(g2
g3
Ntp3449
Rp3450
(dp3451
g7
L10344768344070029312L
sbag1
(g2
g3
Ntp3452
Rp3453
(dp3454
g7
L10353775543324770304L
sbag1
(g2
g3
Ntp3455
Rp3456
(dp3457
g7
L10362782742579511296L
sbag1
(g2
g3
Ntp3458
Rp3459
(dp3460
g7
L10371789941834252288L
sbag1
(g2
g3
Ntp3461
Rp3462
(dp3463
g7
L10380797141088993280L
sbag1
(g2
g3
Ntp3464
Rp3465
(dp3466
g7
L10389804340343734272L
sbag1
(g2
g3
Ntp3467
Rp3468
(dp3469
g7
L10398811539598475264L
sbag1
(g2
g3
Ntp3470
Rp3471
(dp3472
g7
L10407818738853216256L
sbag1
(g2
g3
Ntp3473
Rp3474
(dp3475
g7
L10416825938107957248L
sbag1
(g2
g3
Ntp3476
Rp3477
(dp3478
g7
L10425833137362698240L
sbag1
(g2
g3
Ntp3479
Rp3480
(dp3481
g7
L10434840336617439232L
sbag1
(g2
g3
Ntp3482
Rp3483
(dp3484
g7
L10443847535872180224L
sbag1
(g2
g3
Ntp3485
Rp3486
(dp3487
g7
L10452854735126921216L
sbag1
(g2
g3
Ntp3488
Rp3489
(dp3490
g7
L10461861934381662208L
sbag1
(g2
g3
Ntp3491
Rp3492
(dp3493
g7
L10470869133636403200L
sbag1
(g2
g3
Ntp3494
Rp3495
(dp3496
g7
L10479876332891144192L
sbag1
(g2
g3
Ntp3497
Rp3498
(dp3499
g7
L10488883532145885184L
sbag1
(g2
g3
Ntp3500
Rp3501
(dp3502
g7
L10497890731400626176L
sbag1
(g2
g3
Ntp3503
Rp3504
(dp3505
g7
L10506897930655367168L
sbag1
(g2
g3
Ntp3506
Rp3507
(dp3508
g7
L10515905129910108160L
sbag1
(g2
g3
Ntp3509
Rp3510
(dp3511
g7
L10524912329164849152L
sbag1
(g2
g3
Ntp3512
Rp3513
(dp3514
g7
L10533919528419590144L
sbag1
(g2
g3
Ntp3515
Rp3516
(dp3517
g7
L10542926727674331136L
sbag1
(g2
g3
Ntp3518
Rp3519
(dp3520
g7
L10551933926929072128L
sbag1
(g2
g3
Ntp3521
Rp3522
(dp3523
g7
L10560941126183813120L
sbag1
(g2
g3
Ntp3524
Rp3525
(dp3526
g7
L10569948325438554112L
sbag1
(g2
g3
Ntp3527
Rp3528
(dp3529
g7
L10578955524693295104L
sbag1
(g2
g3
Ntp3530
Rp3531
(dp3532
g7
L10587962723948036096L
sbag1
(g2
g3
Ntp3533
Rp3534
(dp3535
g7
L10596969923202777088L
sbag1
(g2
g3
Ntp3536
Rp3537
(dp3538
g7
L10605977122457518080L
sbag1
(g2
g3
Ntp3539
Rp3540
(dp3541
g7
L10614984321712259072L
sbag1
(g2
g3
Ntp3542
Rp3543
(dp3544
g7
L10623991520967000064L
sbag1
(g2
g3
Ntp3545
Rp3546
(dp3547
g7
L10632998720221741056L
sbag1
(g2
g3
Ntp3548
Rp3549
(dp3550
g7
L10642005919476482048L
sbag1
(g2
g3
Ntp3551
Rp3552
(dp3553
g7
L10651013118731223040L
sbag1
(g2
g3
Ntp3554
Rp3555
(dp3556
g7
L10660020317985964032L
sbag1
(g2
g3
Ntp3557
Rp3558
(dp3559
g7
L10669027517240705024L
sbag1
(g2
g3
Ntp3560
Rp3561
(dp3562
g7
L10678034716495446016L
sbag1
(g2
g3
Ntp3563
Rp3564
(dp3565
g7
L10687041915750187008L
sbag1
(g2
g3
Ntp3566
Rp3567
(dp3568
g7
L10696049115004928000L
sbag1
(g2
g3
Ntp3569
Rp3570
(dp3571
g7
L10705056314259668992L
sbag1
(g2
g3
Ntp3572
Rp3573
(dp3574
g7
L10714063513514409984L
sbag1
(g2
g3
Ntp3575
Rp3576
(dp3577
g7
L10723070712769150976L
sbag1
(g2
g3
Ntp3578
Rp3579
(dp3580
g7
L10732077912023891968L
sbag1
(g2
g3
Ntp3581
Rp3582
(dp3583
g7
L10741085111278632960L
sbag1
(g2
g3
Ntp3584
Rp3585
(dp3586
g7
L10750092310533373952L
sbag1
(g2
g3
Ntp3587
Rp3588
(dp3589
g7
L10759099509788114944L
sbag1
(g2
g3
Ntp3590
Rp3591
(dp3592
g7
L10768106709042855936L
sbag1
(g2
g3
Ntp3593
Rp3594
(dp3595
g7
L10777113908297596928L
sbag1
(g2
g3
Ntp3596
Rp3597
(dp3598
g7
L10786121107552337920L
sbag1
(g2
g3
Ntp3599
Rp3600
(dp3601
g7
L10795128306807078912L
sbag1
(g2
g3
Ntp3602
Rp3603
(dp3604
g7
L10804135506061819904L
sbag1
(g2
g3
Ntp3605
Rp3606
(dp3607
g7
L10813142705316560896L
sbag1
(g2
g3
Ntp3608
Rp3609
(dp3610
g7
L10822149904571301888L
sbag1
(g2
g3
Ntp3611
Rp3612
(dp3613
g7
L10831157103826042880L
sbag1
(g2
g3
Ntp3614
Rp3615
(dp3616
g7
L10840164303080783872L
sbag1
(g2
g3
Ntp3617
Rp3618
(dp3619
g7
L10849171502335524864L
sbag1
(g2
g3
Ntp3620
Rp3621
(dp3622
g7
L10858178701590265856L
sbag1
(g2
g3
Ntp3623
Rp3624
(dp3625
g7
L10867185900845006848L
sbag1
(g2
g3
Ntp3626
Rp3627
(dp3628
g7
L10876193100099747840L
sbag1
(g2
g3
Ntp3629
Rp3630
(dp3631
g7
L10885200299354488832L
sbag1
(g2
g3
Ntp3632
Rp3633
(dp3634
g7
L10894207498609229824L
sbag1
(g2
g3
Ntp3635
Rp3636
(dp3637
g7
L10903214697863970816L
sbag1
(g2
g3
Ntp3638
Rp3639
(dp3640
g7
L10912221897118711808L
sbag1
(g2
g3
Ntp3641
Rp3642
(dp3643
g7
L10921229096373452800L
sbag1
(g2
g3
Ntp3644
Rp3645
(dp3646
g7
L10930236295628193792L
sbag1
(g2
g3
Ntp3647
Rp3648
(dp3649
g7
L10939243494882934784L
sbag1
(g2
g3
Ntp3650
Rp3651
(dp3652
g7
L10948250694137675776L
sbag1
(g2
g3
Ntp3653
Rp3654
(dp3655
g7
L10957257893392416768L
sbag1
(g2
g3
Ntp3656
Rp3657
(dp3658
g7
L10966265092647157760L
sbag1
(g2
g3
Ntp3659
Rp3660
(dp3661
g7
L10975272291901898752L
sbag1
(g2
g3
Ntp3662
Rp3663
(dp3664
g7
L10984279491156639744L
sbag1
(g2
g3
Ntp3665
Rp3666
(dp3667
g7
L10993286690411380736L
sbag1
(g2
g3
Ntp3668
Rp3669
(dp3670
g7
L11002293889666121728L
sbag1
(g2
g3
Ntp3671
Rp3672
(dp3673
g7
L11011301088920862720L
sbag1
(g2
g3
Ntp3674
Rp3675
(dp3676
g7
L11020308288175603712L
sbag1
(g2
g3
Ntp3677
Rp3678
(dp3679
g7
L11029315487430344704L
sbag1
(g2
g3
Ntp3680
Rp3681
(dp3682
g7
L11038322686685085696L
sbag1
(g2
g3
Ntp3683
Rp3684
(dp3685
g7
L11047329885939826688L
sbag1
(g2
g3
Ntp3686
Rp3687
(dp3688
g7
L11056337085194567680L
sbag1
(g2
g3
Ntp3689
Rp3690
(dp3691
g7
L11065344284449308672L
sbag1
(g2
g3
Ntp3692
Rp3693
(dp3694
g7
L11074351483704049664L
sbag1
(g2
g3
Ntp3695
Rp3696
(dp3697
g7
L11083358682958790656L
sbag1
(g2
g3
Ntp3698
Rp3699
(dp3700
g7
L11092365882213531648L
sbag1
(g2
g3
Ntp3701
Rp3702
(dp3703
g7
L11101373081468272640L
sbag1
(g2
g3
Ntp3704
Rp3705
(dp3706
g7
L11110380280723013632L
sbag1
(g2
g3
Ntp3707
Rp3708
(dp3709
g7
L11119387479977754624L
sbag1
(g2
g3
Ntp3710
Rp3711
(dp3712
g7
L11128394679232495616L
sbag1
(g2
g3
Ntp3713
Rp3714
(dp3715
g7
L11137401878487236608L
sbag1
(g2
g3
Ntp3716
Rp3717
(dp3718
g7
L11146409077741977600L
sbag1
(g2
g3
Ntp3719
Rp3720
(dp3721
g7
L11155416276996718592L
sbag1
(g2
g3
Ntp3722
Rp3723
(dp3724
g7
L11164423476251459584L
sbag1
(g2
g3
Ntp3725
Rp3726
(dp3727
g7
L11173430675506200576L
sbag1
(g2
g3
Ntp3728
Rp3729
(dp3730
g7
L11182437874760941568L
sbag1
(g2
g3
Ntp3731
Rp3732
(dp3733
g7
L11191445074015682560L
sbag1
(g2
g3
Ntp3734
Rp3735
(dp3736
g7
L11200452273270423552L
sbag1
(g2
g3
Ntp3737
Rp3738
(dp3739
g7
L11209459472525164544L
sbag1
(g2
g3
Ntp3740
Rp3741
(dp3742
g7
L11218466671779905536L
sbag1
(g2
g3
Ntp3743
Rp3744
(dp3745
g7
L11227473871034646528L
sbag1
(g2
g3
Ntp3746
Rp3747
(dp3748
g7
L11236481070289387520L
sbag1
(g2
g3
Ntp3749
Rp3750
(dp3751
g7
L11245488269544128512L
sbag1
(g2
g3
Ntp3752
Rp3753
(dp3754
g7
L11254495468798869504L
sbag1
(g2
g3
Ntp3755
Rp3756
(dp3757
g7
L11263502668053610496L
sbag1
(g2
g3
Ntp3758
Rp3759
(dp3760
g7
L11272509867308351488L
sbag1
(g2
g3
Ntp3761
Rp3762
(dp3763
g7
L11281517066563092480L
sbag1
(g2
g3
Ntp3764
Rp3765
(dp3766
g7
L11290524265817833472L
sbag1
(g2
g3
Ntp3767
Rp3768
(dp3769
g7
L11299531465072574464L
sbag1
(g2
g3
Ntp3770
Rp3771
(dp3772
g7
L11308538664327315456L
sbag1
(g2
g3
Ntp3773
Rp3774
(dp3775
g7
L11317545863582056448L
sbag1
(g2
g3
Ntp3776
Rp3777
(dp3778
g7
L11326553062836797440L
sbag1
(g2
g3
Ntp3779
Rp3780
(dp3781
g7
L11335560262091538432L
sbag1
(g2
g3
Ntp3782
Rp3783
(dp3784
g7
L11344567461346279424L
sbag1
(g2
g3
Ntp3785
Rp3786
(dp3787
g7
L11353574660601020416L
sbag1
(g2
g3
Ntp3788
Rp3789
(dp3790
g7
L11362581859855761408L
sbag1
(g2
g3
Ntp3791
Rp3792
(dp3793
g7
L11371589059110502400L
sbag1
(g2
g3
Ntp3794
Rp3795
(dp3796
g7
L11380596258365243392L
sbag1
(g2
g3
Ntp3797
Rp3798
(dp3799
g7
L11389603457619984384L
sbag1
(g2
g3
Ntp3800
Rp3801
(dp3802
g7
L11398610656874725376L
sbag1
(g2
g3
Ntp3803
Rp3804
(dp3805
g7
L11407617856129466368L
sbag1
(g2
g3
Ntp3806
Rp3807
(dp3808
g7
L11416625055384207360L
sbag1
(g2
g3
Ntp3809
Rp3810
(dp3811
g7
L11425632254638948352L
sbag1
(g2
g3
Ntp3812
Rp3813
(dp3814
g7
L11434639453893689344L
sbag1
(g2
g3
Ntp3815
Rp3816
(dp3817
g7
L11443646653148430336L
sbag1
(g2
g3
Ntp3818
Rp3819
(dp3820
g7
L11452653852403171328L
sbag1
(g2
g3
Ntp3821
Rp3822
(dp3823
g7
L11461661051657912320L
sbag1
(g2
g3
Ntp3824
Rp3825
(dp3826
g7
L11470668250912653312L
sbag1
(g2
g3
Ntp3827
Rp3828
(dp3829
g7
L11479675450167394304L
sbag1
(g2
g3
Ntp3830
Rp3831
(dp3832
g7
L11488682649422135296L
sbag1
(g2
g3
Ntp3833
Rp3834
(dp3835
g7
L11497689848676876288L
sbag1
(g2
g3
Ntp3836
Rp3837
(dp3838
g7
L11506697047931617280L
sbag1
(g2
g3
Ntp3839
Rp3840
(dp3841
g7
L11515704247186358272L
sbag1
(g2
g3
Ntp3842
Rp3843
(dp3844
g7
L11524711446441099264L
sbag1
(g2
g3
Ntp3845
Rp3846
(dp3847
g7
L11533718645695840256L
sbag1
(g2
g3
Ntp3848
Rp3849
(dp3850
g7
L11542725844950581248L
sbag1
(g2
g3
Ntp3851
Rp3852
(dp3853
g7
L11551733044205322240L
sbag1
(g2
g3
Ntp3854
Rp3855
(dp3856
g7
L11560740243460063232L
sbag1
(g2
g3
Ntp3857
Rp3858
(dp3859
g7
L11569747442714804224L
sbag1
(g2
g3
Ntp3860
Rp3861
(dp3862
g7
L11578754641969545216L
sbag1
(g2
g3
Ntp3863
Rp3864
(dp3865
g7
L11587761841224286208L
sbag1
(g2
g3
Ntp3866
Rp3867
(dp3868
g7
L11596769040479027200L
sbag1
(g2
g3
Ntp3869
Rp3870
(dp3871
g7
L11605776239733768192L
sbag1
(g2
g3
Ntp3872
Rp3873
(dp3874
g7
L11614783438988509184L
sbag1
(g2
g3
Ntp3875
Rp3876
(dp3877
g7
L11623790638243250176L
sbag1
(g2
g3
Ntp3878
Rp3879
(dp3880
g7
L11632797837497991168L
sbag1
(g2
g3
Ntp3881
Rp3882
(dp3883
g7
L11641805036752732160L
sbag1
(g2
g3
Ntp3884
Rp3885
(dp3886
g7
L11650812236007473152L
sbag1
(g2
g3
Ntp3887
Rp3888
(dp3889
g7
L11659819435262214144L
sbag1
(g2
g3
Ntp3890
Rp3891
(dp3892
g7
L11668826634516955136L
sbag1
(g2
g3
Ntp3893
Rp3894
(dp3895
g7
L11677833833771696128L
sbag1
(g2
g3
Ntp3896
Rp3897
(dp3898
g7
L11686841033026437120L
sbag1
(g2
g3
Ntp3899
Rp3900
(dp3901
g7
L11695848232281178112L
sbag1
(g2
g3
Ntp3902
Rp3903
(dp3904
g7
L11704855431535919104L
sbag1
(g2
g3
Ntp3905
Rp3906
(dp3907
g7
L11713862630790660096L
sbag1
(g2
g3
Ntp3908
Rp3909
(dp3910
g7
L11722869830045401088L
sbag1
(g2
g3
Ntp3911
Rp3912
(dp3913
g7
L11731877029300142080L
sbag1
(g2
g3
Ntp3914
Rp3915
(dp3916
g7
L11740884228554883072L
sbag1
(g2
g3
Ntp3917
Rp3918
(dp3919
g7
L11749891427809624064L
sbag1
(g2
g3
Ntp3920
Rp3921
(dp3922
g7
L11758898627064365056L
sbag1
(g2
g3
Ntp3923
Rp3924
(dp3925
g7
L11767905826319106048L
sbag1
(g2
g3
Ntp3926
Rp3927
(dp3928
g7
L11776913025573847040L
sbag1
(g2
g3
Ntp3929
Rp3930
(dp3931
g7
L11785920224828588032L
sbag1
(g2
g3
Ntp3932
Rp3933
(dp3934
g7
L11794927424083329024L
sbag1
(g2
g3
Ntp3935
Rp3936
(dp3937
g7
L11803934623338070016L
sbag1
(g2
g3
Ntp3938
Rp3939
(dp3940
g7
L11812941822592811008L
sbag1
(g2
g3
Ntp3941
Rp3942
(dp3943
g7
L11821949021847552000L
sbag1
(g2
g3
Ntp3944
Rp3945
(dp3946
g7
L11830956221102292992L
sbag1
(g2
g3
Ntp3947
Rp3948
(dp3949
g7
L11839963420357033984L
sbag1
(g2
g3
Ntp3950
Rp3951
(dp3952
g7
L11848970619611774976L
sbag1
(g2
g3
Ntp3953
Rp3954
(dp3955
g7
L11857977818866515968L
sbag1
(g2
g3
Ntp3956
Rp3957
(dp3958
g7
L11866985018121256960L
sbag1
(g2
g3
Ntp3959
Rp3960
(dp3961
g7
L11875992217375997952L
sbag1
(g2
g3
Ntp3962
Rp3963
(dp3964
g7
L11884999416630738944L
sbag1
(g2
g3
Ntp3965
Rp3966
(dp3967
g7
L11894006615885479936L
sbag1
(g2
g3
Ntp3968
Rp3969
(dp3970
g7
L11903013815140220928L
sbag1
(g2
g3
Ntp3971
Rp3972
(dp3973
g7
L11912021014394961920L
sbag1
(g2
g3
Ntp3974
Rp3975
(dp3976
g7
L11921028213649702912L
sbag1
(g2
g3
Ntp3977
Rp3978
(dp3979
g7
L11930035412904443904L
sbag1
(g2
g3
Ntp3980
Rp3981
(dp3982
g7
L11939042612159184896L
sbag1
(g2
g3
Ntp3983
Rp3984
(dp3985
g7
L11948049811413925888L
sbag1
(g2
g3
Ntp3986
Rp3987
(dp3988
g7
L11957057010668666880L
sbag1
(g2
g3
Ntp3989
Rp3990
(dp3991
g7
L11966064209923407872L
sbag1
(g2
g3
Ntp3992
Rp3993
(dp3994
g7
L11975071409178148864L
sbag1
(g2
g3
Ntp3995
Rp3996
(dp3997
g7
L11984078608432889856L
sbag1
(g2
g3
Ntp3998
Rp3999
(dp4000
g7
L11993085807687630848L
sbag1
(g2
g3
Ntp4001
Rp4002
(dp4003
g7
L12002093006942371840L
sbag1
(g2
g3
Ntp4004
Rp4005
(dp4006
g7
L12011100206197112832L
sbag1
(g2
g3
Ntp4007
Rp4008
(dp4009
g7
L12020107405451853824L
sbag1
(g2
g3
Ntp4010
Rp4011
(dp4012
g7
L12029114604706594816L
sbag1
(g2
g3
Ntp4013
Rp4014
(dp4015
g7
L12038121803961335808L
sbag1
(g2
g3
Ntp4016
Rp4017
(dp4018
g7
L12047129003216076800L
sbag1
(g2
g3
Ntp4019
Rp4020
(dp4021
g7
L12056136202470817792L
sbag1
(g2
g3
Ntp4022
Rp4023
(dp4024
g7
L12065143401725558784L
sbag1
(g2
g3
Ntp4025
Rp4026
(dp4027
g7
L12074150600980299776L
sbag1
(g2
g3
Ntp4028
Rp4029
(dp4030
g7
L12083157800235040768L
sbag1
(g2
g3
Ntp4031
Rp4032
(dp4033
g7
L12092164999489781760L
sbag1
(g2
g3
Ntp4034
Rp4035
(dp4036
g7
L12101172198744522752L
sbag1
(g2
g3
Ntp4037
Rp4038
(dp4039
g7
L12110179397999263744L
sbag1
(g2
g3
Ntp4040
Rp4041
(dp4042
g7
L12119186597254004736L
sbag1
(g2
g3
Ntp4043
Rp4044
(dp4045
g7
L12128193796508745728L
sbag1
(g2
g3
Ntp4046
Rp4047
(dp4048
g7
L12137200995763486720L
sbag1
(g2
g3
Ntp4049
Rp4050
(dp4051
g7
L12146208195018227712L
sbag1
(g2
g3
Ntp4052
Rp4053
(dp4054
g7
L12155215394272968704L
sbag1
(g2
g3
Ntp4055
Rp4056
(dp4057
g7
L12164222593527709696L
sbag1
(g2
g3
Ntp4058
Rp4059
(dp4060
g7
L12173229792782450688L
sbag1
(g2
g3
Ntp4061
Rp4062
(dp4063
g7
L12182236992037191680L
sbag1
(g2
g3
Ntp4064
Rp4065
(dp4066
g7
L12191244191291932672L
sbag1
(g2
g3
Ntp4067
Rp4068
(dp4069
g7
L12200251390546673664L
sbag1
(g2
g3
Ntp4070
Rp4071
(dp4072
g7
L12209258589801414656L
sbag1
(g2
g3
Ntp4073
Rp4074
(dp4075
g7
L12218265789056155648L
sbag1
(g2
g3
Ntp4076
Rp4077
(dp4078
g7
L12227272988310896640L
sbag1
(g2
g3
Ntp4079
Rp4080
(dp4081
g7
L12236280187565637632L
sbag1
(g2
g3
Ntp4082
Rp4083
(dp4084
g7
L12245287386820378624L
sbag1
(g2
g3
Ntp4085
Rp4086
(dp4087
g7
L12254294586075119616L
sbag1
(g2
g3
Ntp4088
Rp4089
(dp4090
g7
L12263301785329860608L
sbag1
(g2
g3
Ntp4091
Rp4092
(dp4093
g7
L12272308984584601600L
sbag1
(g2
g3
Ntp4094
Rp4095
(dp4096
g7
L12281316183839342592L
sbag1
(g2
g3
Ntp4097
Rp4098
(dp4099
g7
L12290323383094083584L
sbag1
(g2
g3
Ntp4100
Rp4101
(dp4102
g7
L12299330582348824576L
sbag1
(g2
g3
Ntp4103
Rp4104
(dp4105
g7
L12308337781603565568L
sbag1
(g2
g3
Ntp4106
Rp4107
(dp4108
g7
L12317344980858306560L
sbag1
(g2
g3
Ntp4109
Rp4110
(dp4111
g7
L12326352180113047552L
sbag1
(g2
g3
Ntp4112
Rp4113
(dp4114
g7
L12335359379367788544L
sbag1
(g2
g3
Ntp4115
Rp4116
(dp4117
g7
L12344366578622529536L
sbag1
(g2
g3
Ntp4118
Rp4119
(dp4120
g7
L12353373777877270528L
sbag1
(g2
g3
Ntp4121
Rp4122
(dp4123
g7
L12362380977132011520L
sbag1
(g2
g3
Ntp4124
Rp4125
(dp4126
g7
L12371388176386752512L
sbag1
(g2
g3
Ntp4127
Rp4128
(dp4129
g7
L12380395375641493504L
sbag1
(g2
g3
Ntp4130
Rp4131
(dp4132
g7
L12389402574896234496L
sbag1
(g2
g3
Ntp4133
Rp4134
(dp4135
g7
L12398409774150975488L
sbag1
(g2
g3
Ntp4136
Rp4137
(dp4138
g7
L12407416973405716480L
sbag1
(g2
g3
Ntp4139
Rp4140
(dp4141
g7
L12416424172660457472L
sbag1
(g2
g3
Ntp4142
Rp4143
(dp4144
g7
L12425431371915198464L
sbag1
(g2
g3
Ntp4145
Rp4146
(dp4147
g7
L12434438571169939456L
sbag1
(g2
g3
Ntp4148
Rp4149
(dp4150
g7
L12443445770424680448L
sbag1
(g2
g3
Ntp4151
Rp4152
(dp4153
g7
L12452452969679421440L
sbag1
(g2
g3
Ntp4154
Rp4155
(dp4156
g7
L12461460168934162432L
sbag1
(g2
g3
Ntp4157
Rp4158
(dp4159
g7
L12470467368188903424L
sbag1
(g2
g3
Ntp4160
Rp4161
(dp4162
g7
L12479474567443644416L
sbag1
(g2
g3
Ntp4163
Rp4164
(dp4165
g7
L12488481766698385408L
sbag1
(g2
g3
Ntp4166
Rp4167
(dp4168
g7
L12497488965953126400L
sbag1
(g2
g3
Ntp4169
Rp4170
(dp4171
g7
L12506496165207867392L
sbag1
(g2
g3
Ntp4172
Rp4173
(dp4174
g7
L12515503364462608384L
sbag1
(g2
g3
Ntp4175
Rp4176
(dp4177
g7
L12524510563717349376L
sbag1
(g2
g3
Ntp4178
Rp4179
(dp4180
g7
L12533517762972090368L
sbag1
(g2
g3
Ntp4181
Rp4182
(dp4183
g7
L12542524962226831360L
sbag1
(g2
g3
Ntp4184
Rp4185
(dp4186
g7
L12551532161481572352L
sbag1
(g2
g3
Ntp4187
Rp4188
(dp4189
g7
L12560539360736313344L
sbag1
(g2
g3
Ntp4190
Rp4191
(dp4192
g7
L12569546559991054336L
sbag1
(g2
g3
Ntp4193
Rp4194
(dp4195
g7
L12578553759245795328L
sbag1
(g2
g3
Ntp4196
Rp4197
(dp4198
g7
L12587560958500536320L
sbag1
(g2
g3
Ntp4199
Rp4200
(dp4201
g7
L12596568157755277312L
sbag1
(g2
g3
Ntp4202
Rp4203
(dp4204
g7
L12605575357010018304L
sbag1
(g2
g3
Ntp4205
Rp4206
(dp4207
g7
L12614582556264759296L
sbag1
(g2
g3
Ntp4208
Rp4209
(dp4210
g7
L12623589755519500288L
sbag1
(g2
g3
Ntp4211
Rp4212
(dp4213
g7
L12632596954774241280L
sbag1
(g2
g3
Ntp4214
Rp4215
(dp4216
g7
L12641604154028982272L
sbag1
(g2
g3
Ntp4217
Rp4218
(dp4219
g7
L12650611353283723264L
sbag1
(g2
g3
Ntp4220
Rp4221
(dp4222
g7
L12659618552538464256L
sbag1
(g2
g3
Ntp4223
Rp4224
(dp4225
g7
L12668625751793205248L
sbag1
(g2
g3
Ntp4226
Rp4227
(dp4228
g7
L12677632951047946240L
sbag1
(g2
g3
Ntp4229
Rp4230
(dp4231
g7
L12686640150302687232L
sbag1
(g2
g3
Ntp4232
Rp4233
(dp4234
g7
L12695647349557428224L
sbag1
(g2
g3
Ntp4235
Rp4236
(dp4237
g7
L12704654548812169216L
sbag1
(g2
g3
Ntp4238
Rp4239
(dp4240
g7
L12713661748066910208L
sbag1
(g2
g3
Ntp4241
Rp4242
(dp4243
g7
L12722668947321651200L
sbag1
(g2
g3
Ntp4244
Rp4245
(dp4246
g7
L12731676146576392192L
sbag1
(g2
g3
Ntp4247
Rp4248
(dp4249
g7
L12740683345831133184L
sbag1
(g2
g3
Ntp4250
Rp4251
(dp4252
g7
L12749690545085874176L
sbag1
(g2
g3
Ntp4253
Rp4254
(dp4255
g7
L12758697744340615168L
sbag1
(g2
g3
Ntp4256
Rp4257
(dp4258
g7
L12767704943595356160L
sbag1
(g2
g3
Ntp4259
Rp4260
(dp4261
g7
L12776712142850097152L
sbag1
(g2
g3
Ntp4262
Rp4263
(dp4264
g7
L12785719342104838144L
sbag1
(g2
g3
Ntp4265
Rp4266
(dp4267
g7
L12794726541359579136L
sbag1
(g2
g3
Ntp4268
Rp4269
(dp4270
g7
L12803733740614320128L
sbag1
(g2
g3
Ntp4271
Rp4272
(dp4273
g7
L12812740939869061120L
sbag1
(g2
g3
Ntp4274
Rp4275
(dp4276
g7
L12821748139123802112L
sbag1
(g2
g3
Ntp4277
Rp4278
(dp4279
g7
L12830755338378543104L
sbag1
(g2
g3
Ntp4280
Rp4281
(dp4282
g7
L12839762537633284096L
sbag1
(g2
g3
Ntp4283
Rp4284
(dp4285
g7
L12848769736888025088L
sbag1
(g2
g3
Ntp4286
Rp4287
(dp4288
g7
L12857776936142766080L
sbag1
(g2
g3
Ntp4289
Rp4290
(dp4291
g7
L12866784135397507072L
sbag1
(g2
g3
Ntp4292
Rp4293
(dp4294
g7
L12875791334652248064L
sbag1
(g2
g3
Ntp4295
Rp4296
(dp4297
g7
L12884798533906989056L
sbag1
(g2
g3
Ntp4298
Rp4299
(dp4300
g7
L12893805733161730048L
sbag1
(g2
g3
Ntp4301
Rp4302
(dp4303
g7
L12902812932416471040L
sbag1
(g2
g3
Ntp4304
Rp4305
(dp4306
g7
L12911820131671212032L
sbag1
(g2
g3
Ntp4307
Rp4308
(dp4309
g7
L12920827330925953024L
sbag1
(g2
g3
Ntp4310
Rp4311
(dp4312
g7
L12929834530180694016L
sbag1
(g2
g3
Ntp4313
Rp4314
(dp4315
g7
L12938841729435435008L
sbag1
(g2
g3
Ntp4316
Rp4317
(dp4318
g7
L12947848928690176000L
sbag1
(g2
g3
Ntp4319
Rp4320
(dp4321
g7
L12956856127944916992L
sbag1
(g2
g3
Ntp4322
Rp4323
(dp4324
g7
L12965863327199657984L
sbag1
(g2
g3
Ntp4325
Rp4326
(dp4327
g7
L12974870526454398976L
sbag1
(g2
g3
Ntp4328
Rp4329
(dp4330
g7
L12983877725709139968L
sbag1
(g2
g3
Ntp4331
Rp4332
(dp4333
g7
L12992884924963880960L
sbag1
(g2
g3
Ntp4334
Rp4335
(dp4336
g7
L13001892124218621952L
sbag1
(g2
g3
Ntp4337
Rp4338
(dp4339
g7
L13010899323473362944L
sbag1
(g2
g3
Ntp4340
Rp4341
(dp4342
g7
L13019906522728103936L
sbag1
(g2
g3
Ntp4343
Rp4344
(dp4345
g7
L13028913721982844928L
sbag1
(g2
g3
Ntp4346
Rp4347
(dp4348
g7
L13037920921237585920L
sbag1
(g2
g3
Ntp4349
Rp4350
(dp4351
g7
L13046928120492326912L
sbag1
(g2
g3
Ntp4352
Rp4353
(dp4354
g7
L13055935319747067904L
sbag1
(g2
g3
Ntp4355
Rp4356
(dp4357
g7
L13064942519001808896L
sbag1
(g2
g3
Ntp4358
Rp4359
(dp4360
g7
L13073949718256549888L
sbag1
(g2
g3
Ntp4361
Rp4362
(dp4363
g7
L13082956917511290880L
sbag1
(g2
g3
Ntp4364
Rp4365
(dp4366
g7
L13091964116766031872L
sbag1
(g2
g3
Ntp4367
Rp4368
(dp4369
g7
L13100971316020772864L
sbag1
(g2
g3
Ntp4370
Rp4371
(dp4372
g7
L13109978515275513856L
sbag1
(g2
g3
Ntp4373
Rp4374
(dp4375
g7
L13118985714530254848L
sbag1
(g2
g3
Ntp4376
Rp4377
(dp4378
g7
L13127992913784995840L
sbag1
(g2
g3
Ntp4379
Rp4380
(dp4381
g7
L13137000113039736832L
sbag1
(g2
g3
Ntp4382
Rp4383
(dp4384
g7
L13146007312294477824L
sbag1
(g2
g3
Ntp4385
Rp4386
(dp4387
g7
L13155014511549218816L
sbag1
(g2
g3
Ntp4388
Rp4389
(dp4390
g7
L13164021710803959808L
sbag1
(g2
g3
Ntp4391
Rp4392
(dp4393
g7
L13173028910058700800L
sbag1
(g2
g3
Ntp4394
Rp4395
(dp4396
g7
L13182036109313441792L
sbag1
(g2
g3
Ntp4397
Rp4398
(dp4399
g7
L13191043308568182784L
sbag1
(g2
g3
Ntp4400
Rp4401
(dp4402
g7
L13200050507822923776L
sbag1
(g2
g3
Ntp4403
Rp4404
(dp4405
g7
L13209057707077664768L
sbag1
(g2
g3
Ntp4406
Rp4407
(dp4408
g7
L13218064906332405760L
sbag1
(g2
g3
Ntp4409
Rp4410
(dp4411
g7
L13227072105587146752L
sbag1
(g2
g3
Ntp4412
Rp4413
(dp4414
g7
L13236079304841887744L
sbag1
(g2
g3
Ntp4415
Rp4416
(dp4417
g7
L13245086504096628736L
sbag1
(g2
g3
Ntp4418
Rp4419
(dp4420
g7
L13254093703351369728L
sbag1
(g2
g3
Ntp4421
Rp4422
(dp4423
g7
L13263100902606110720L
sbag1
(g2
g3
Ntp4424
Rp4425
(dp4426
g7
L13272108101860851712L
sbag1
(g2
g3
Ntp4427
Rp4428
(dp4429
g7
L13281115301115592704L
sbag1
(g2
g3
Ntp4430
Rp4431
(dp4432
g7
L13290122500370333696L
sbag1
(g2
g3
Ntp4433
Rp4434
(dp4435
g7
L13299129699625074688L
sbag1
(g2
g3
Ntp4436
Rp4437
(dp4438
g7
L13308136898879815680L
sbag1
(g2
g3
Ntp4439
Rp4440
(dp4441
g7
L13317144098134556672L
sbag1
(g2
g3
Ntp4442
Rp4443
(dp4444
g7
L13326151297389297664L
sbag1
(g2
g3
Ntp4445
Rp4446
(dp4447
g7
L13335158496644038656L
sbag1
(g2
g3
Ntp4448
Rp4449
(dp4450
g7
L13344165695898779648L
sbag1
(g2
g3
Ntp4451
Rp4452
(dp4453
g7
L13353172895153520640L
sbag1
(g2
g3
Ntp4454
Rp4455
(dp4456
g7
L13362180094408261632L
sbag1
(g2
g3
Ntp4457
Rp4458
(dp4459
g7
L13371187293663002624L
sbag1
(g2
g3
Ntp4460
Rp4461
(dp4462
g7
L13380194492917743616L
sbag1
(g2
g3
Ntp4463
Rp4464
(dp4465
g7
L13389201692172484608L
sbag1
(g2
g3
Ntp4466
Rp4467
(dp4468
g7
L13398208891427225600L
sbag1
(g2
g3
Ntp4469
Rp4470
(dp4471
g7
L13407216090681966592L
sbag1
(g2
g3
Ntp4472
Rp4473
(dp4474
g7
L13416223289936707584L
sbag1
(g2
g3
Ntp4475
Rp4476
(dp4477
g7
L13425230489191448576L
sbag1
(g2
g3
Ntp4478
Rp4479
(dp4480
g7
L13434237688446189568L
sbag1
(g2
g3
Ntp4481
Rp4482
(dp4483
g7
L13443244887700930560L
sbag1
(g2
g3
Ntp4484
Rp4485
(dp4486
g7
L13452252086955671552L
sbag1
(g2
g3
Ntp4487
Rp4488
(dp4489
g7
L13461259286210412544L
sbag1
(g2
g3
Ntp4490
Rp4491
(dp4492
g7
L13470266485465153536L
sbag1
(g2
g3
Ntp4493
Rp4494
(dp4495
g7
L13479273684719894528L
sbag1
(g2
g3
Ntp4496
Rp4497
(dp4498
g7
L13488280883974635520L
sbag1
(g2
g3
Ntp4499
Rp4500
(dp4501
g7
L13497288083229376512L
sbag1
(g2
g3
Ntp4502
Rp4503
(dp4504
g7
L13506295282484117504L
sbag1
(g2
g3
Ntp4505
Rp4506
(dp4507
g7
L13515302481738858496L
sbag1
(g2
g3
Ntp4508
Rp4509
(dp4510
g7
L13524309680993599488L
sbag1
(g2
g3
Ntp4511
Rp4512
(dp4513
g7
L13533316880248340480L
sbag1
(g2
g3
Ntp4514
Rp4515
(dp4516
g7
L13542324079503081472L
sbag1
(g2
g3
Ntp4517
Rp4518
(dp4519
g7
L13551331278757822464L
sbag1
(g2
g3
Ntp4520
Rp4521
(dp4522
g7
L13560338478012563456L
sbag1
(g2
g3
Ntp4523
Rp4524
(dp4525
g7
L13569345677267304448L
sbag1
(g2
g3
Ntp4526
Rp4527
(dp4528
g7
L13578352876522045440L
sbag1
(g2
g3
Ntp4529
Rp4530
(dp4531
g7
L13587360075776786432L
sbag1
(g2
g3
Ntp4532
Rp4533
(dp4534
g7
L13596367275031527424L
sbag1
(g2
g3
Ntp4535
Rp4536
(dp4537
g7
L13605374474286268416L
sbag1
(g2
g3
Ntp4538
Rp4539
(dp4540
g7
L13614381673541009408L
sbag1
(g2
g3
Ntp4541
Rp4542
(dp4543
g7
L13623388872795750400L
sbag1
(g2
g3
Ntp4544
Rp4545
(dp4546
g7
L13632396072050491392L
sbag1
(g2
g3
Ntp4547
Rp4548
(dp4549
g7
L13641403271305232384L
sbag1
(g2
g3
Ntp4550
Rp4551
(dp4552
g7
L13650410470559973376L
sbag1
(g2
g3
Ntp4553
Rp4554
(dp4555
g7
L13659417669814714368L
sbag1
(g2
g3
Ntp4556
Rp4557
(dp4558
g7
L13668424869069455360L
sbag1
(g2
g3
Ntp4559
Rp4560
(dp4561
g7
L13677432068324196352L
sbag1
(g2
g3
Ntp4562
Rp4563
(dp4564
g7
L13686439267578937344L
sbag1
(g2
g3
Ntp4565
Rp4566
(dp4567
g7
L13695446466833678336L
sbag1
(g2
g3
Ntp4568
Rp4569
(dp4570
g7
L13704453666088419328L
sbag1
(g2
g3
Ntp4571
Rp4572
(dp4573
g7
L13713460865343160320L
sbag1
(g2
g3
Ntp4574
Rp4575
(dp4576
g7
L13722468064597901312L
sbag1
(g2
g3
Ntp4577
Rp4578
(dp4579
g7
L13731475263852642304L
sbag1
(g2
g3
Ntp4580
Rp4581
(dp4582
g7
L13740482463107383296L
sbag1
(g2
g3
Ntp4583
Rp4584
(dp4585
g7
L13749489662362124288L
sbag1
(g2
g3
Ntp4586
Rp4587
(dp4588
g7
L13758496861616865280L
sbag1
(g2
g3
Ntp4589
Rp4590
(dp4591
g7
L13767504060871606272L
sbag1
(g2
g3
Ntp4592
Rp4593
(dp4594
g7
L13776511260126347264L
sbag1
(g2
g3
Ntp4595
Rp4596
(dp4597
g7
L13785518459381088256L
sbag1
(g2
g3
Ntp4598
Rp4599
(dp4600
g7
L13794525658635829248L
sbag1
(g2
g3
Ntp4601
Rp4602
(dp4603
g7
L13803532857890570240L
sbag1
(g2
g3
Ntp4604
Rp4605
(dp4606
g7
L13812540057145311232L
sbag1
(g2
g3
Ntp4607
Rp4608
(dp4609
g7
L13821547256400052224L
sbag1
(g2
g3
Ntp4610
Rp4611
(dp4612
g7
L13830554455654793216L
sba.