(lp0
ccopy_reg
_reconstructor
p1
(cs2sphere.sphere
CellId
p2
c__builtin__
object
p3
Ntp4
Rp5
(dp6
S'_CellId__id'
p7
L1152921504606846976L
sbag1
(g2
g3
Ntp8
Rp9
(dp10
g7
L3458764513820540928L
sbag1
(g2
g3
Ntp11
Rp12
(dp13
g7
L5764607523034234880L
sbag1
(g2
g3
Ntp14
Rp15
(dp16
g7
L8070450532247928832L
sbag1
(g2
g3
Ntp17
Rp18
(dp19
g7
L10376293541461622784L
sbag1
(g2
g3
Ntp20
Rp21
(dp22
g7
L12682136550675316736L
sba.