(lp0
ccopy_reg
_reconstructor
p1
(cs2sphere.sphere
CellId
p2
c__builtin__
object
p3
Ntp4
Rp5
(dp6
S'_CellId__id'
p7
L18014398509481984L
sbag1
(g2
g3
Ntp8
Rp9
(dp10
g7
L54043195528445952L
sbag1
(g2
g3
Ntp11
Rp12
(dp13
g7
L90071992547409920L
sbag1
(g2
g3
Ntp14
Rp15
(dp16
g7
L126100789566373888L
sbag1
(g2
g3
Ntp17
Rp18
(dp19
g7
L162129586585337856L
sbag1
(g2
g3
Ntp20
Rp21
(dp22
g7
L198158383604301824L
sbag1
(g2
g3
Ntp23
Rp24
(dp25
g7
L234187180623265792L
sbag1
(g2
g3
Ntp26
Rp27
(dp28
g7
L270215977642229760L
sbag1
(g2
g3
Ntp29
Rp30
(dp31
g7
L306244774661193728L
sbag1
(g2
g3
Ntp32
Rp33
(dp34
g7
L342273571680157696L
sbag1
(g2
g3
Ntp35
Rp36
(dp37
g7
L378302368699121664L
sbag1
(g2
g3
Ntp38
Rp39
(dp40
g7
L414331165718085632L
sbag1
(g2
g3
Ntp41
Rp42
(dp43
g7
L450359962737049600L
sbag1
(g2
g3
Ntp44
Rp45
(dp46
g7
L486388759756013568L
sbag1
(g2
g3
Ntp47
Rp48
(dp49
g7
L522417556774977536L
sbag1
(g2
g3
Ntp50
Rp51
(dp52
g7
L558446353793941504L
sbag1
(g2
g3
Ntp53
Rp54
(dp55
g7
L594475150812905472L
sbag1
(g2
g3
Ntp56
Rp57
(dp58
g7
L630503947831869440L
sbag1
(g2
g3
Ntp59
Rp60
(dp61
g7
L666532744850833408L
sbag1
(g2
g3
Ntp62
Rp63
(dp64
g7
L702561541869797376L
sbag1
(g2
g3
Ntp65
Rp66
(dp67
g7
L738590338888761344L
sbag1
(g2
g3
Ntp68
Rp69
(dp70
g7
L774619135907725312L
sbag1
(g2
g3
Ntp71
Rp72
(dp73
g7
L810647932926689280L
sbag1
(g2
g3
Ntp74
Rp75
(dp76
g7
L846676729945653248L
sbag1
(g2
g3
Ntp77
Rp78
(dp79
g7
L882705526964617216L
sbag1
(g2
g3
Ntp80
Rp81
(dp82
g7
L918734323983581184L
sbag1
(g2
g3
Ntp83
Rp84
(dp85
g7
L954763121002545152L
sbag1
(g2
g3
Ntp86
Rp87
(dp88
g7
L990791918021509120L
sbag1
(g2
g3
Ntp89
Rp90
(dp91
g7
L1026820715040473088L
sbag1
(g2
g3
Ntp92
Rp93
(dp94
g7
L1062849512059437056L
sbag1
(g2
g3
Ntp95
Rp96
(dp97
g7
L1098878309078401024L
sbag1
(g2
g3
Ntp98
Rp99
(dp100
g7
L1134907106097364992L
sbag1
(g2
g3
Ntp101
Rp102
(dp103
g7
L1170935903116328960L
sbag1
(g2
g3
Ntp104
Rp105
(dp106
g7
L1206964700135292928L
sbag1
(g2
g3
Ntp107
Rp108
(dp109
g7
L1242993497154256896L
sbag1
(g2
g3
Ntp110
Rp111
(dp112
g7
L1279022294173220864L
sbag1
(g2
g3
Ntp113
Rp114
(dp115
g7
L1315051091192184832L
sbag1
(g2
g3
Ntp116
Rp117
(dp118
g7
L1351079888211148800L
sbag1
(g2
g3
Ntp119
Rp120
(dp121
g7
L1387108685230112768L
sbag1
(g2
g3
Ntp122
Rp123
(dp124
g7
L1423137482249076736L
sbag1
(g2
g3
Ntp125
Rp126
(dp127
g7
L1459166279268040704L
sbag1
(g2
g3
Ntp128
Rp129
(dp130
g7
L1495195076287004672L
sbag1
(g2
g3
Ntp131
Rp132
(dp133
g7
L1531223873305968640L
sbag1
(g2
g3
Ntp134
Rp135
(dp136
g7
L1567252670324932608L
sbag1
(g2
g3
Ntp137
Rp138
(dp139
g7
L1603281467343896576L
sbag1
(g2
g3
Ntp140
Rp141
(dp142
g7
L1639310264362860544L
sbag1
(g2
g3
Ntp143
Rp144
(dp145
g7
L1675339061381824512L
sbag1
(g2
g3
Ntp146
Rp147
(dp148
g7
L1711367858400788480L
sbag1
(g2
g3
Ntp149
Rp150
(dp151
g7
L1747396655419752448L
sbag1
(g2
g3
Ntp152
Rp153
(dp154
g7
L1783425452438716416L
sbag1
(g2
g3
Ntp155
Rp156
(dp157
g7
L1819454249457680384L
sbag1
(g2
g3
Ntp158
Rp159
(dp160
g7
L1855483046476644352L
sbag1
(g2
g3
Ntp161
Rp162
(dp163
g7
L1891511843495608320L
sbag1
(g2
g3
Ntp164
Rp165
(dp166
g7
L1927540640514572288L
sbag1
(g2
g3
Ntp167
Rp168
(dp169
g7
L1963569437533536256L
sbag1
(g2
g3
Ntp170
Rp171
(dp172
g7
L1999598234552500224L
sbag1
(g2
g3
Ntp173
Rp174
(dp175
g7
L2035627031571464192L
sbag1
(g2
g3
Ntp176
Rp177
(dp178
g7
L2071655828590428160L
sbag1
(g2
g3
Ntp179
Rp180
(dp181
g7
L2107684625609392128L
sbag1
(g2
g3
Ntp182
Rp183
(dp184
g7
L2143713422628356096L
sbag1
(g2
g3
Ntp185
Rp186
(dp187
g7
L2179742219647320064L
sbag1
(g2
g3
Ntp188
Rp189
(dp190
g7
L2215771016666284032L
sbag1
(g2
g3
Ntp191
Rp192
(dp193
g7
L2251799813685248000L
sbag1
(g2
g3
Ntp194
Rp195
(dp196
g7
L2287828610704211968L
sbag1
(g2
g3
Ntp197
Rp198
(dp199
g7
L2323857407723175936L
sbag1
(g2
g3
Ntp200
Rp201
(dp202
g7
L2359886204742139904L
sbag1
(g2
g3
Ntp203
Rp204
(dp205
g7
L2395915001761103872L
sbag1
(g2
g3
Ntp206
Rp207
(dp208
g7
L2431943798780067840L
sbag1
(g2
g3
Ntp209
Rp210
(dp211
g7
L2467972595799031808L
sbag1
(g2
g3
Ntp212
Rp213
(dp214
g7
L2504001392817995776L
sbag1
(g2
g3
Ntp215
Rp216
(dp217
g7
L2540030189836959744L
sbag1
(g2
g3
Ntp218
Rp219
(dp220
g7
L2576058986855923712L
sbag1
(g2
g3
Ntp221
Rp222
(dp223
g7
L2612087783874887680L
sbag1
(g2
g3
Ntp224
Rp225
(dp226
g7
L2648116580893851648L
sbag1
(g2
g3
Ntp227
Rp228
(dp229
g7
L2684145377912815616L
sbag1
(g2
g3
Ntp230
Rp231
(dp232
g7
L2720174174931779584L
sbag1
(g2
g3
Ntp233
Rp234
(dp235
g7
L2756202971950743552L
sbag1
(g2
g3
Ntp236
Rp237
(dp238
g7
L2792231768969707520L
sbag1
(g2
g3
Ntp239
Rp240
(dp241
g7
L2828260565988671488L
sbag1
(g2
g3
Ntp242
Rp243
(dp244
g7
L2864289363007635456L
sbag1
(g2
g3
Ntp245
Rp246
(dp247
g7
L2900318160026599424L
sbag1
(g2
g3
Ntp248
Rp249
(dp250
g7
L2936346957045563392L
sbag1
(g2
g3
Ntp251
Rp252
(dp253
g7
L2972375754064527360L
sbag1
(g2
g3
Ntp254
Rp255
(dp256
g7
L3008404551083491328L
sbag1
(g2
g3
Ntp257
Rp258
(dp259
g7
L3044433348102455296L
sbag1
(g2
g3
Ntp260
Rp261
(dp262
g7
L3080462145121419264L
sbag1
(g2
g3
Ntp263
Rp264
(dp265
g7
L3116490942140383232L
sbag1
(g2
g3
Ntp266
Rp267
(dp268
g7
L3152519739159347200L
sbag1
(g2
g3
Ntp269
Rp270
(dp271
g7
L3188548536178311168L
sbag1
(g2
g3
Ntp272
Rp273
(dp274
g7
L3224577333197275136L
sbag1
(g2
g3
Ntp275
Rp276
(dp277
g7
L3260606130216239104L
sbag1
(g2
g3
Ntp278
Rp279
(dp280
g7
L3296634927235203072L
sbag1
(g2
g3
Ntp281
Rp282
(dp283
g7
L3332663724254167040L
sbag1
(g2
g3
Ntp284
Rp285
(dp286
g7
L3368692521273131008L
sbag1
(g2
g3
Ntp287
Rp288
(dp289
g7
L3404721318292094976L
sbag1
(g2
g3
Ntp290
Rp291
(dp292
g7
L3440750115311058944L
sbag1
(g2
g3
Ntp293
Rp294
(dp295
g7
L3476778912330022912L
sbag1
(g2
g3
Ntp296
Rp297
(dp298
g7
L3512807709348986880L
sbag1
(g2
g3
Ntp299
Rp300
(dp301
g7
L3548836506367950848L
sbag1
(g2
g3
Ntp302
Rp303
(dp304
g7
L3584865303386914816L
sbag1
(g2
g3
Ntp305
Rp306
(dp307
g7
L3620894100405878784L
sbag1
(g2
g3
Ntp308
Rp309
(dp310
g7
L3656922897424842752L
sbag1
(g2
g3
Ntp311
Rp312
(dp313
g7
L3692951694443806720L
sbag1
(g2
g3
Ntp314
Rp315
(dp316
g7
L3728980491462770688L
sbag1
(g2
g3
Ntp317
Rp318
(dp319
g7
L3765009288481734656L
sbag1
(g2
g3
Ntp320
Rp321
(dp322
g7
L3801038085500698624L
sbag1
(g2
g3
Ntp323
Rp324
(dp325
g7
L3837066882519662592L
sbag1
(g2
g3
Ntp326
Rp327
(dp328
g7
L3873095679538626560L
sbag1
(g2
g3
Ntp329
Rp330
(dp331
g7
L3909124476557590528L
sbag1
(g2
g3
Ntp332
Rp333
(dp334
g7
L3945153273576554496L
sbag1
(g2
g3
Ntp335
Rp336
(dp337
g7
L3981182070595518464L
sbag1
(g2
g3
Ntp338
Rp339
(dp340
g7
L4017210867614482432L
sbag1
(g2
g3
Ntp341
Rp342
(dp343
g7
L4053239664633446400L
sbag1
(g2
g3
Ntp344
Rp345
(dp346
g7
L4089268461652410368L
sbag1
(g2
g3
Ntp347
Rp348
(dp349
g7
L4125297258671374336L
sbag1
(g2
g3
Ntp350
Rp351
(dp352
g7
L4161326055690338304L
sbag1
(g2
g3
Ntp353
Rp354
(dp355
g7
L4197354852709302272L
sbag1
(g2
g3
Ntp356
Rp357
(dp358
g7
L4233383649728266240L
sbag1
(g2
g3
Ntp359
Rp360
(dp361
g7
L4269412446747230208L
sbag1
(g2
g3
Ntp362
Rp363
(dp364
g7
L4305441243766194176L
sbag1
(g2
g3
Ntp365
Rp366
(dp367
g7
L4341470040785158144L
sbag1
(g2
g3
Ntp368
Rp369
(dp370
g7
L4377498837804122112L
sbag1
(g2
g3
Ntp371
Rp372
(dp373
g7
L4413527634823086080L
sbag1
(g2
g3
Ntp374
Rp375
(dp376
g7
L4449556431842050048L
sbag1
(g2
g3
Ntp377
Rp378
(dp379
g7
L4485585228861014016L
sbag1
(g2
g3
Ntp380
Rp381
(dp382
g7
L4521614025879977984L
sbag1
(g2
g3
Ntp383
Rp384
(dp385
g7
L4557642822898941952L
sbag1
(g2
g3
Ntp386
Rp387
(dp388
g7
L4593671619917905920L
sbag1
(g2
g3
Ntp389
Rp390
(dp391
g7
L4629700416936869888L
sbag1
(g2
g3
Ntp392
Rp393
(dp394
g7
L4665729213955833856L
sbag1
(g2
g3
Ntp395
Rp396
(dp397
g7
L4701758010974797824L
sbag1
(g2
g3
Ntp398
Rp399
(dp400
g7
L4737786807993761792L
sbag1
(g2
g3
Ntp401
Rp402
(dp403
g7
L4773815605012725760L
sbag1
(g2
g3
Ntp404
Rp405
(dp406
g7
L4809844402031689728L
sbag1
(g2
g3
Ntp407
Rp408
(dp409
g7
L4845873199050653696L
sbag1
(g2
g3
Ntp410
Rp411
(dp412
g7
L4881901996069617664L
sbag1
(g2
g3
Ntp413
Rp414
(dp415
g7
L4917930793088581632L
sbag1
(g2
g3
Ntp416
Rp417
(dp418
g7
L4953959590107545600L
sbag1
(g2
g3
Ntp419
Rp420
(dp421
g7
L4989988387126509568L
sbag1
(g2
g3
Ntp422
Rp423
(dp424
g7
L5026017184145473536L
sbag1
(g2
g3
Ntp425
Rp426
(dp427
g7
L5062045981164437504L
sbag1
(g2
g3
Ntp428
Rp429
(dp430
g7
L5098074778183401472L
sbag1
(g2
g3
Ntp431
Rp432
(dp433
g7
L5134103575202365440L
sbag1
(g2
g3
Ntp434
Rp435
(dp436
g7
L5170132372221329408L
sbag1
(g2
g3
Ntp437
Rp438
(dp439
g7
L5206161169240293376L
sbag1
(g2
g3
Ntp440
Rp441
(dp442
g7
L5242189966259257344L
sbag1
(g2
g3
Ntp443
Rp444
(dp445
g7
L5278218763278221312L
sbag1
(g2
g3
Ntp446
Rp447
(dp448
g7
L5314247560297185280L
sbag1
(g2
g3
Ntp449
Rp450
(dp451
g7
L5350276357316149248L
sbag1
(g2
g3
Ntp452
Rp453
(dp454
g7
L5386305154335113216L
sbag1
(g2
g3
Ntp455
Rp456
(dp457
g7
L5422333951354077184L
sbag1
(g2
g3
Ntp458
Rp459
(dp460
g7
L5458362748373041152L
sbag1
(g2
g3
Ntp461
Rp462
(dp463
g7
L5494391545392005120L
sbag1
(g2
g3
Ntp464
Rp465
(dp466
g7
L5530420342410969088L
sbag1
(g2
g3
Ntp467
Rp468
(dp469
g7
L5566449139429933056L
sbag1
(g2
g3
Ntp470
Rp471
(dp472
g7
L5602477936448897024L
sbag1
(g2
g3
Ntp473
Rp474
(dp475
g7
L5638506733467860992L
sbag1
(g2
g3
Ntp476
Rp477
(dp478
g7
L5674535530486824960L
sbag1
(g2
g3
Ntp479
Rp480
(dp481
g7
L5710564327505788928L
sbag1
(g2
g3
Ntp482
Rp483
(dp484
g7
L5746593124524752896L
sbag1
(g2
g3
Ntp485
Rp486
(dp487
g7
L5782621921543716864L
sbag1
(g2
g3
Ntp488
Rp489
(dp490
g7
L5818650718562680832L
sbag1
(g2
g3
Ntp491
Rp492
(dp493
g7
L5854679515581644800L
sbag1
(g2
g3
Ntp494
Rp495
(dp496
g7
L5890708312600608768L
sbag1
(g2
g3
Ntp497
Rp498
(dp499
g7
L5926737109619572736L
sbag1
(g2
g3
Ntp500
Rp501
(dp502
g7
L5962765906638536704L
sbag1
(g2
g3
Ntp503
Rp504
(dp505
g7
L5998794703657500672L
sbag1
(g2
g3
Ntp506
Rp507
(dp508
g7
L6034823500676464640L
sbag1
(g2
g3
Ntp509
Rp510
(dp511
g7
L6070852297695428608L
sbag1
(g2
g3
Ntp512
Rp513
(dp514
g7
L6106881094714392576L
sbag1
(g2
g3
Ntp515
Rp516
(dp517
g7
L6142909891733356544L
sbag1
(g2
g3
Ntp518
Rp519
(dp520
g7
L6178938688752320512L
sbag1
(g2
g3
Ntp521
Rp522
(dp523
g7
L6214967485771284480L
sbag1
(g2
g3
Ntp524
Rp525
(dp526
g7
L6250996282790248448L
sbag1
(g2
g3
Ntp527
Rp528
(dp529
g7
L6287025079809212416L
sbag1
(g2
g3
Ntp530
Rp531
(dp532
g7
L6323053876828176384L
sbag1
(g2
g3
Ntp533
Rp534
(dp535
g7
L6359082673847140352L
sbag1
(g2
g3
Ntp536
Rp537
(dp538
g7
L6395111470866104320L
sbag1
(g2
g3
Ntp539
Rp540
(dp541
g7
L6431140267885068288L
sbag1
(g2
g3
Ntp542
Rp543
(dp544
g7
L6467169064904032256L
sbag1
(g2
g3
Ntp545
Rp546
(dp547
g7
L6503197861922996224L
sbag1
(g2
g3
Ntp548
Rp549
(dp550
g7
L6539226658941960192L
sbag1
(g2
g3
Ntp551
Rp552
(dp553
g7
L6575255455960924160L
sbag1
(g2
g3
Ntp554
Rp555
(dp556
g7
L6611284252979888128L
sbag1
(g2
g3
Ntp557
Rp558
(dp559
g7
L6647313049998852096L
sbag1
(g2
g3
Ntp560
Rp561
(dp562
g7
L6683341847017816064L
sbag1
(g2
g3
Ntp563
Rp564
(dp565
g7
L6719370644036780032L
sbag1
(g2
g3
Ntp566
Rp567
(dp568
g7
L6755399441055744000L
sbag1
(g2
g3
Ntp569
Rp570
(dp571
g7
L6791428238074707968L
sbag1
(g2
g3
Ntp572
Rp573
(dp574
g7
L6827457035093671936L
sbag1
(g2
g3
Ntp575
Rp576
(dp577
g7
L6863485832112635904L
sbag1
(g2
g3
Ntp578
Rp579
(dp580
g7
L6899514629131599872L
sbag1
(g2
g3
Ntp581
Rp582
(dp583
g7
L6935543426150563840L
sbag1
(g2
g3
Ntp584
Rp585
(dp586
g7
L6971572223169527808L
sbag1
(g2
g3
Ntp587
Rp588
(dp589
g7
L7007601020188491776L
sbag1
(g2
g3
Ntp590
Rp591
(dp592
g7
L7043629817207455744L
sbag1
(g2
g3
Ntp593
Rp594
(dp595
g7
L7079658614226419712L
sbag1
(g2
g3
Ntp596
Rp597
(dp598
g7
L7115687411245383680L
sbag1
(g2
g3
Ntp599
Rp600
(dp601
g7
L7151716208264347648L
sbag1
(g2
g3
Ntp602
Rp603
(dp604
g7
L7187745005283311616L
sbag1
(g2
g3
Ntp605
Rp606
(dp607
g7
L7223773802302275584L
sbag1
(g2
g3
Ntp608
Rp609
(dp610
g7
L7259802599321239552L
sbag1
(g2
g3
Ntp611
Rp612
(dp613
g7
L7295831396340203520L
sbag1
(g2
g3
Ntp614
Rp615
(dp616
g7
L7331860193359167488L
sbag1
(g2
g3
Ntp617
Rp618
(dp619
g7
L7367888990378131456L
sbag1
(g2
g3
Ntp620
Rp621
(dp622
g7
L7403917787397095424L
sbag1
(g2
g3
Ntp623
Rp624
(dp625
g7
L7439946584416059392L
sbag1
(g2
g3
Ntp626
Rp627
(dp628
g7
L7475975381435023360L
sbag1
(g2
g3
Ntp629
Rp630
(dp631
g7
L7512004178453987328L
sbag1
(g2
g3
Ntp632
Rp633
(dp634
g7
L7548032975472951296L
sbag1
(g2
g3
Ntp635
Rp636
(dp637
g7
L7584061772491915264L
sbag1
(g2
g3
Ntp638
Rp639
(dp640
g7
L7620090569510879232L
sbag1
(g2
g3
Ntp641
Rp642
(dp643
g7
L7656119366529843200L
sbag1
(g2
g3
Ntp644
Rp645
(dp646
g7
L7692148163548807168L
sbag1
(g2
g3
Ntp647
Rp648
(dp649
g7
L7728176960567771136L
sbag1
(g2
g3
Ntp650
Rp651
(dp652
g7
L7764205757586735104L
sbag1
(g2
g3
Ntp653
Rp654
(dp655
g7
L7800234554605699072L
sbag1
(g2
g3
Ntp656
Rp657
(dp658
g7
L7836263351624663040L
sbag1
(g2
g3
Ntp659
Rp660
(dp661
g7
L7872292148643627008L
sbag1
(g2
g3
Ntp662
Rp663
(dp664
g7
L7908320945662590976L
sbag1
(g2
g3
Ntp665
Rp666
(dp667
g7
L7944349742681554944L
sbag1
(g2
g3
Ntp668
Rp669
(dp670
g7
L7980378539700518912L
sbag1
(g2
g3
Ntp671
Rp672
(dp673
g7
L8016407336719482880L
sbag1
(g2
g3
Ntp674
Rp675
(dp676
g7
L8052436133738446848L
sbag1
(g2
g3
Ntp677
Rp678
(dp679
g7
L8088464930757410816L
sbag1
(g2
g3
Ntp680
Rp681
(dp682
g7
L8124493727776374784L
sbag1
(g2
g3
Ntp683
Rp684
(dp685
g7
L8160522524795338752L
sbag1
(g2
g3
Ntp686
Rp687
(dp688
g7
L8196551321814302720L
sbag1
(g2
g3
Ntp689
Rp690
(dp691
g7
L8232580118833266688L
sbag1
(g2
g3
Ntp692
Rp693
(dp694
g7
L8268608915852230656L
sbag1
(g2
g3
Ntp695
Rp696
(dp697
g7
L8304637712871194624L
sbag1
(g2
g3
Ntp698
Rp699
(dp700
g7
L8340666509890158592L
sbag1
(g2
g3
Ntp701
Rp702
(dp703
g7
L8376695306909122560L
sbag1
(g2
g3
Ntp704
Rp705
(dp706
g7
L8412724103928086528L
sbag1
(g2
g3
Ntp707
Rp708
(dp709
g7
L8448752900947050496L
sbag1
(g2
g3
Ntp710
Rp711
(dp712
g7
L8484781697966014464L
sbag1
(g2
g3
Ntp713
Rp714
(dp715
g7
L8520810494984978432L
sbag1
(g2
g3
Ntp716
Rp717
(dp718
g7
L8556839292003942400L
sbag1
(g2
g3
Ntp719
Rp720
(dp721
g7
L8592868089022906368L
sbag1
(g2
g3
Ntp722
Rp723
(dp724
g7
L8628896886041870336L
sbag1
(g2
g3
Ntp725
Rp726
(dp727
g7
L8664925683060834304L
sbag1
(g2
g3
Ntp728
Rp729
(dp730
g7
L8700954480079798272L
sbag1
(g2
g3
Ntp731
Rp732
(dp733
g7
L8736983277098762240L
sbag1
(g2
g3
Ntp734
Rp735
(dp736
g7
L8773012074117726208L
sbag1
(g2
g3
Ntp737
Rp738
(dp739
g7
L8809040871136690176L
sbag1
(g2
g3
Ntp740
Rp741
(dp742
g7
L8845069668155654144L
sbag1
(g2
g3
Ntp743
Rp744
(dp745
g7
L8881098465174618112L
sbag1
(g2
g3
Ntp746
Rp747
(dp748
g7
L8917127262193582080L
sbag1
(g2
g3
Ntp749
Rp750
(dp751
g7
L8953156059212546048L
sbag1
(g2
g3
Ntp752
Rp753
(dp754
g7
L8989184856231510016L
sbag1
(g2
g3
Ntp755
Rp756
(dp757
g7
L9025213653250473984L
sbag1
(g2
g3
Ntp758
Rp759
(dp760
g7
L9061242450269437952L
sbag1
(g2
g3
Ntp761
Rp762
(dp763
g7
L9097271247288401920L
sbag1
(g2
g3
Ntp764
Rp765
(dp766
g7
L9133300044307365888L
sbag1
(g2
g3
Ntp767
Rp768
(dp769
g7
L9169328841326329856L
sbag1
(g2
g3
Ntp770
Rp771
(dp772
g7
L9205357638345293824L
sbag1
(g2
g3
Ntp773
Rp774
(dp775
g7
L9241386435364257792L
sbag1
(g2
g3
Ntp776
Rp777
(dp778
g7
L9277415232383221760L
sbag1
(g2
g3
Ntp779
Rp780
(dp781
g7
L9313444029402185728L
sbag1
(g2
g3
Ntp782
Rp783
(dp784
g7
L9349472826421149696L
sbag1
(g2
g3
Ntp785
Rp786
(dp787
g7
L9385501623440113664L
sbag1
(g2
g3
Ntp788
Rp789
(dp790
g7
L9421530420459077632L
sbag1
(g2
g3
Ntp791
Rp792
(dp793
g7
L9457559217478041600L
sbag1
(g2
g3
Ntp794
Rp795
(dp796
g7
L9493588014497005568L
sbag1
(g2
g3
Ntp797
Rp798
(dp799
g7
L9529616811515969536L
sbag1
(g2
g3
Ntp800
Rp801
(dp802
g7
L9565645608534933504L
sbag1
(g2
g3
Ntp803
Rp804
(dp805
g7
L9601674405553897472L
sbag1
(g2
g3
Ntp806
Rp807
(dp808
g7
L9637703202572861440L
sbag1
(g2
g3
Ntp809
Rp810
(dp811
g7
L9673731999591825408L
sbag1
(g2
g3
Ntp812
Rp813
(dp814
g7
L9709760796610789376L
sbag1
(g2
g3
Ntp815
Rp816
(dp817
g7
L9745789593629753344L
sbag1
(g2
g3
Ntp818
Rp819
(dp820
g7
L9781818390648717312L
sbag1
(g2
g3
Ntp821
Rp822
(dp823
g7
L9817847187667681280L
sbag1
(g2
g3
Ntp824
Rp825
(dp826
g7
L9853875984686645248L
sbag1
(g2
g3
Ntp827
Rp828
(dp829
g7
L9889904781705609216L
sbag1
(g2
g3
Ntp830
Rp831
(dp832
g7
L9925933578724573184L
sbag1
(g2
g3
Ntp833
Rp834
(dp835
g7
L9961962375743537152L
sbag1
(g2
g3
Ntp836
Rp837
(dp838
g7
L9997991172762501120L
sbag1
(g2
g3
Ntp839
Rp840
(dp841
g7
L10034019969781465088L
sbag1
(g2
g3
Ntp842
Rp843
(dp844
g7
L10070048766800429056L
sbag1
(g2
g3
Ntp845
Rp846
(dp847
g7
L10106077563819393024L
sbag1
(g2
g3
Ntp848
Rp849
(dp850
g7
L10142106360838356992L
sbag1
(g2
g3
Ntp851
Rp852
(dp853
g7
L10178135157857320960L
sbag1
(g2
g3
Ntp854
Rp855
(dp856
g7
L10214163954876284928L
sbag1
(g2
g3
Ntp857
Rp858
(dp859
g7
L10250192751895248896L
sbag1
(g2
g3
Ntp860
Rp861
(dp862
g7
L10286221548914212864L
sbag1
(g2
g3
Ntp863
Rp864
(dp865
g7
L10322250345933176832L
sbag1
(g2
g3
Ntp866
Rp867
(dp868
g7
L10358279142952140800L
sbag1
(g2
g3
Ntp869
Rp870
(dp871
g7
L10394307939971104768L
sbag1
(g2
g3
Ntp872
Rp873
(dp874
g7
L10430336736990068736L
sbag1
(g2
g3
Ntp875
Rp876
(dp877
g7
L10466365534009032704L
sbag1
(g2
g3
Ntp878
Rp879
(dp880
g7
L10502394331027996672L
sbag1
(g2
g3
Ntp881
Rp882
(dp883
g7
L10538423128046960640L
sbag1
(g2
g3
Ntp884
Rp885
(dp886
g7
L10574451925065924608L
sbag1
(g2
g3
Ntp887
Rp888
(dp889
g7
L10610480722084888576L
sbag1
(g2
g3
Ntp890
Rp891
(dp892
g7
L10646509519103852544L
sbag1
(g2
g3
Ntp893
Rp894
(dp895
g7
L10682538316122816512L
sbag1
(g2
g3
Ntp896
Rp897
(dp898
g7
L10718567113141780480L
sbag1
(g2
g3
Ntp899
Rp900
(dp901
g7
L10754595910160744448L
sbag1
(g2
g3
Ntp902
Rp903
(dp904
g7
L10790624707179708416L
sbag1
(g2
g3
Ntp905
Rp906
(dp907
g7
L10826653504198672384L
sbag1
(g2
g3
Ntp908
Rp909
(dp910
g7
L10862682301217636352L
sbag1
(g2
g3
Ntp911
Rp912
(dp913
g7
L10898711098236600320L
sbag1
(g2
g3
Ntp914
Rp915
(dp916
g7
L10934739895255564288L
sbag1
(g2
g3
Ntp917
Rp918
(dp919
g7
L10970768692274528256L
sbag1
(g2
g3
Ntp920
Rp921
(dp922
g7
L11006797489293492224L
sbag1
(g2
g3
Ntp923
Rp924
(dp925
g7
L11042826286312456192L
sbag1
(g2
g3
Ntp926
Rp927
(dp928
g7
L11078855083331420160L
sbag1
(g2
g3
Ntp929
Rp930
(dp931
g7
L11114883880350384128L
sbag1
(g2
g3
Ntp932
Rp933
(dp934
g7
L11150912677369348096L
sbag1
(g2
g3
Ntp935
Rp936
(dp937
g7
L11186941474388312064L
sbag1
(g2
g3
Ntp938
Rp939
(dp940
g7
L11222970271407276032L
sbag1
(g2
g3
Ntp941
Rp942
(dp943
g7
L11258999068426240000L
sbag1
(g2
g3
Ntp944
Rp945
(dp946
g7
L11295027865445203968L
sbag1
(g2
g3
Ntp947
Rp948
(dp949
g7
L11331056662464167936L
sbag1
(g2
g3
Ntp950
Rp951
(dp952
g7
L11367085459483131904L
sbag1
(g2
g3
Ntp953
Rp954
(dp955
g7
L11403114256502095872L
sbag1
(g2
g3
Ntp956
Rp957
(dp958
g7
L11439143053521059840L
sbag1
(g2
g3
Ntp959
Rp960
(dp961
g7
L11475171850540023808L
sbag1
(g2
g3
Ntp962
Rp963
(dp964
g7
L11511200647558987776L
sbag1
(g2
g3
Ntp965
Rp966
(dp967
g7
L11547229444577951744L
sbag1
(g2
g3
Ntp968
Rp969
(dp970
g7
L11583258241596915712L
sbag1
(g2
g3
Ntp971
Rp972
(dp973
g7
L11619287038615879680L
sbag1
(g2
g3
Ntp974
Rp975
(dp976
g7
L11655315835634843648L
sbag1
(g2
g3
Ntp977
Rp978
(dp979
g7
L11691344632653807616L
sbag1
(g2
g3
Ntp980
Rp981
(dp982
g7
L11727373429672771584L
sbag1
(g2
g3
Ntp983
Rp984
(dp985
g7
L11763402226691735552L
sbag1
(g2
g3
Ntp986
Rp987
(dp988
g7
L11799431023710699520L
sbag1
(g2
g3
Ntp989
Rp990
(dp991
g7
L11835459820729663488L
sbag1
(g2
g3
Ntp992
Rp993
(dp994
g7
L11871488617748627456L
sbag1
(g2
g3
Ntp995
Rp996
(dp997
g7
L11907517414767591424L
sbag1
(g2
g3
Ntp998
Rp999
(dp1000
g7
L11943546211786555392L
sbag1
(g2
g3
Ntp1001
Rp1002
(dp1003
g7
L11979575008805519360L
sbag1
(g2
g3
Ntp1004
Rp1005
(dp1006
g7
L12015603805824483328L
sbag1
(g2
g3
Ntp1007
Rp1008
(dp1009
g7
L12051632602843447296L
sbag1
(g2
g3
Ntp1010
Rp1011
(dp1012
g7
L12087661399862411264L
sbag1
(g2
g3
Ntp1013
Rp1014
(dp1015
g7
L12123690196881375232L
sbag1
(g2
g3
Ntp1016
Rp1017
(dp1018
g7
L12159718993900339200L
sbag1
(g2
g3
Ntp1019
Rp1020
(dp1021
g7
L12195747790919303168L
sbag1
(g2
g3
Ntp1022
Rp1023
(dp1024
g7
L12231776587938267136L
sbag1
(g2
g3
Ntp1025
Rp1026
(dp1027
g7
L12267805384957231104L
sbag1
(g2
g3
Ntp1028
Rp1029
(dp1030
g7
L12303834181976195072L
sbag1
(g2
g3
Ntp1031
Rp1032
(dp1033
g7
L12339862978995159040L
sbag1
(g2
g3
Ntp1034
Rp1035
(dp1036
g7
L12375891776014123008L
sbag1
(g2
g3
Ntp1037
Rp1038
(dp1039
g7
L12411920573033086976L
sbag1
(g2
g3
Ntp1040
Rp1041
(dp1042
g7
L12447949370052050944L
sbag1
(g2
g3
Ntp1043
Rp1044
(dp1045
g7
L12483978167071014912L
sbag1
(g2
g3
Ntp1046
Rp1047
(dp1048
g7
L12520006964089978880L
sbag1
(g2
g3
Ntp1049
Rp1050
(dp1051
g7
L12556035761108942848L
sbag1
(g2
g3
Ntp1052
Rp1053
(dp1054
g7
L12592064558127906816L
sbag1
(g2
g3
Ntp1055
Rp1056
(dp1057
g7
L12628093355146870784L
sbag1
(g2
g3
Ntp1058
Rp1059
(dp1060
g7
L12664122152165834752L
sbag1
(g2
g3
Ntp1061
Rp1062
(dp1063
g7
L12700150949184798720L
sbag1
(g2
g3
Ntp1064
Rp1065
(dp1066
g7
L12736179746203762688L
sbag1
(g2
g3
Ntp1067
Rp1068
(dp1069
g7
L12772208543222726656L
sbag1
(g2
g3
Ntp1070
Rp1071
(dp1072
g7
L12808237340241690624L
sbag1
(g2
g3
Ntp1073
Rp1074
(dp1075
g7
L12844266137260654592L
sbag1
(g2
g3
Ntp1076
Rp1077
(dp1078
g7
L12880294934279618560L
sbag1
(g2
g3
Ntp1079
Rp1080
(dp1081
g7
L12916323731298582528L
sbag1
(g2
g3
Ntp1082
Rp1083
(dp1084
g7
L12952352528317546496L
sbag1
(g2
g3
Ntp1085
Rp1086
(dp1087
g7
L12988381325336510464L
sbag1
(g2
g3
Ntp1088
Rp1089
(dp1090
g7
L13024410122355474432L
sbag1
(g2
g3
Ntp1091
Rp1092
(dp1093
g7
L13060438919374438400L
sbag1
(g2
g3
Ntp1094
Rp1095
(dp1096
g7
L13096467716393402368L
sbag1
(g2
g3
Ntp1097
Rp1098
(dp1099
g7
L13132496513412366336L
sbag1
(g2
g3
Ntp1100
Rp1101
(dp1102
g7
L13168525310431330304L
sbag1
(g2
g3
Ntp1103
Rp1104
(dp1105
g7
L13204554107450294272L
sbag1
(g2
g3
Ntp1106
Rp1107
(dp1108
g7
L13240582904469258240L
sbag1
(g2
g3
Ntp1109
Rp1110
(dp1111
g7
L13276611701488222208L
sbag1
(g2
g3
Ntp1112
Rp1113
(dp1114
g7
L13312640498507186176L
sbag1
(g2
g3
Ntp1115
Rp1116
(dp1117
g7
L13348669295526150144L
sbag1
(g2
g3
Ntp1118
Rp1119
(dp1120
g7
L13384698092545114112L
sbag1
(g2
g3
Ntp1121
Rp1122
(dp1123
g7
L13420726889564078080L
sbag1
(g2
g3
Ntp1124
Rp1125
(dp1126
g7
L13456755686583042048L
sbag1
(g2
g3
Ntp1127
Rp1128
(dp1129
g7
L13492784483602006016L
sbag1
(g2
g3
Ntp1130
Rp1131
(dp1132
g7
L13528813280620969984L
sbag1
(g2
g3
Ntp1133
Rp1134
(dp1135
g7
L13564842077639933952L
sbag1
(g2
g3
Ntp1136
Rp1137
(dp1138
g7
L13600870874658897920L
sbag1
(g2
g3
Ntp1139
Rp1140
(dp1141
g7
L13636899671677861888L
sbag1
(g2
g3
Ntp1142
Rp1143
(dp1144
g7
L13672928468696825856L
sbag1
(g2
g3
Ntp1145
Rp1146
(dp1147
g7
L13708957265715789824L
sbag1
(g2
g3
Ntp1148
Rp1149
(dp1150
g7
L13744986062734753792L
sbag1
(g2
g3
Ntp1151
Rp1152
(dp1153
g7
L13781014859753717760L
sbag1
(g2
g3
Ntp1154
Rp1155
(dp1156
g7
L13817043656772681728L
sba.