(lp0
ccopy_reg
_reconstructor
p1
(cs2sphere.sphere
CellId
p2
c__builtin__
object
p3
Ntp4
Rp5
(dp6
S'_CellId__id'
p7
L72057594037927936L
sbag1
(g2
g3
Ntp8
Rp9
(dp10
g7
L216172782113783808L
sbag1
(g2
g3
Ntp11
Rp12
(dp13
g7
L360287970189639680L
sbag1
(g2
g3
Ntp14
Rp15
(dp16
g7
L504403158265495552L
sbag1
(g2
g3
Ntp17
Rp18
(dp19
g7
L648518346341351424L
sbag1
(g2
g3
Ntp20
Rp21
(dp22
g7
L792633534417207296L
sbag1
(g2
g3
Ntp23
Rp24
(dp25
g7
L936748722493063168L
sbag1
(g2
g3
Ntp26
Rp27
(dp28
g7
L1080863910568919040L
sbag1
(g2
g3
Ntp29
Rp30
(dp31
g7
L1224979098644774912L
sbag1
(g2
g3
Ntp32
Rp33
(dp34
g7
L1369094286720630784L
sbag1
(g2
g3
Ntp35
Rp36
(dp37
g7
L1513209474796486656L
sbag1
(g2
g3
Ntp38
Rp39
(dp40
g7
L1657324662872342528L
sbag1
(g2
g3
Ntp41
Rp42
(dp43
g7
L1801439850948198400L
sbag1
(g2
g3
Ntp44
Rp45
(dp46
g7
L1945555039024054272L
sbag1
(g2
g3
Ntp47
Rp48
(dp49
g7
L2089670227099910144L
sbag1
(g2
g3
Ntp50
Rp51
(dp52
g7
L2233785415175766016L
sbag1
(g2
g3
Ntp53
Rp54
(dp55
g7
L2377900603251621888L
sbag1
(g2
g3
Ntp56
Rp57
(dp58
g7
L2522015791327477760L
sbag1
(g2
g3
Ntp59
Rp60
(dp61
g7
L2666130979403333632L
sbag1
(g2
g3
Ntp62
Rp63
(dp64
g7
L2810246167479189504L
sbag1
(g2
g3
Ntp65
Rp66
(dp67
g7
L2954361355555045376L
sbag1
(g2
g3
Ntp68
Rp69
(dp70
g7
L3098476543630901248L
sbag1
(g2
g3
Ntp71
Rp72
(dp73
g7
L3242591731706757120L
sbag1
(g2
g3
Ntp74
Rp75
(dp76
g7
L3386706919782612992L
sbag1
(g2
g3
Ntp77
Rp78
(dp79
g7
L3530822107858468864L
sbag1
(g2
g3
Ntp80
Rp81
(dp82
g7
L3674937295934324736L
sbag1
(g2
g3
Ntp83
Rp84
(dp85
g7
L3819052484010180608L
sbag1
(g2
g3
Ntp86
Rp87
(dp88
g7
L3963167672086036480L
sbag1
(g2
g3
Ntp89
Rp90
(dp91
g7
L4107282860161892352L
sbag1
(g2
g3
Ntp92
Rp93
(dp94
g7
L4251398048237748224L
sbag1
(g2
g3
Ntp95
Rp96
(dp97
g7
L4395513236313604096L
sbag1
(g2
g3
Ntp98
Rp99
(dp100
g7
L4539628424389459968L
sbag1
(g2
g3
Ntp101
Rp102
(dp103
g7
L4683743612465315840L
sbag1
(g2
g3
Ntp104
Rp105
(dp106
g7
L4827858800541171712L
sbag1
(g2
g3
Ntp107
Rp108
(dp109
g7
L4971973988617027584L
sbag1
(g2
g3
Ntp110
Rp111
(dp112
g7
L5116089176692883456L
sbag1
(g2
g3
Ntp113
Rp114
(dp115
g7
L5260204364768739328L
sbag1
(g2
g3
Ntp116
Rp117
(dp118
g7
L5404319552844595200L
sbag1
(g2
g3
Ntp119
Rp120
(dp121
g7
L5548434740920451072L
sbag1
(g2
g3
Ntp122
Rp123
(dp124
g7
L5692549928996306944L
sbag1
(g2
g3
Ntp125
Rp126
(dp127
g7
L5836665117072162816L
sbag1
(g2
g3
Ntp128
Rp129
(dp130
g7
L5980780305148018688L
sbag1
(g2
g3
Ntp131
Rp132
(dp133
g7
L6124895493223874560L
sbag1
(g2
g3
Ntp134
Rp135
(dp136
g7
L6269010681299730432L
sbag1
(g2
g3
Ntp137
Rp138
(dp139
g7
L6413125869375586304L
sbag1
(g2
g3
Ntp140
Rp141
(dp142
g7
L6557241057451442176L
sbag1
(g2
g3
Ntp143
Rp144
(dp145
g7
L6701356245527298048L
sbag1
(g2
g3
Ntp146
Rp147
(dp148
g7
L6845471433603153920L
sbag1
(g2
g3
Ntp149
Rp150
(dp151
g7
L6989586621679009792L
sbag1
(g2
g3
Ntp152
Rp153
(dp154
g7
L7133701809754865664L
sbag1
(g2
g3
Ntp155
Rp156
(dp157
g7
L7277816997830721536L
sbag1
(g2
g3
Ntp158
Rp159
(dp160
g7
L7421932185906577408L
sbag1
(g2
g3
Ntp161
Rp162
(dp163
g7
L7566047373982433280L
sbag1
(g2
g3
Ntp164
Rp165
(dp166
g7
L7710162562058289152L
sbag1
(g2
g3
Ntp167
Rp168
(dp169
g7
L7854277750134145024L
sbag1
(g2
g3
Ntp170
Rp171
(dp172
g7
L7998392938210000896L
sbag1
(g2
g3
Ntp173
Rp174
(dp175
g7
L8142508126285856768L
sbag1
(g2
g3
Ntp176
Rp177
(dp178
g7
L8286623314361712640L
sbag1
(g2
g3
Ntp179
Rp180
(dp181
g7
L8430738502437568512L
sbag1
(g2
g3
Ntp182
Rp183
(dp184
g7
L8574853690513424384L
sbag1
(g2
g3
Ntp185
Rp186
(dp187
g7
L8718968878589280256L
sbag1
(g2
g3
Ntp188
Rp189
(dp190
g7
L8863084066665136128L
sbag1
(g2
g3
Ntp191
Rp192
(dp193
g7
L9007199254740992000L
sbag1
(g2
g3
Ntp194
Rp195
(dp196
g7
L9151314442816847872L
sbag1
(g2
g3
Ntp197
Rp198
(dp199
g7
L9295429630892703744L
sbag1
(g2
g3
Ntp200
Rp201
(dp202
g7
L9439544818968559616L
sbag1
(g2
g3
Ntp203
Rp204
(dp205
g7
L9583660007044415488L
sbag1
(g2
g3
Ntp206
Rp207
(dp208
g7
L9727775195120271360L
sbag1
(g2
g3
Ntp209
Rp210
(dp211
g7
L9871890383196127232L
sbag1
(g2
g3
Ntp212
Rp213
(dp214
g7
L10016005571271983104L
sbag1
(g2
g3
Ntp215
Rp216
(dp217
g7
L10160120759347838976L
sbag1
(g2
g3
Ntp218
Rp219
(dp220
g7
L10304235947423694848L
sbag1
(g2
g3
Ntp221
Rp222
(dp223
g7
L10448351135499550720L
sbag1
(g2
g3
Ntp224
Rp225
(dp226
g7
L10592466323575406592L
sbag1
(g2
g3
Ntp227
Rp228
(dp229
g7
L10736581511651262464L
sbag1
(g2
g3
Ntp230
Rp231
(dp232
g7
L10880696699727118336L
sbag1
(g2
g3
Ntp233
Rp234
(dp235
g7
L11024811887802974208L
sbag1
(g2
g3
Ntp236
Rp237
(dp238
g7
L11168927075878830080L
sbag1
(g2
g3
Ntp239
Rp240
(dp241
g7
L11313042263954685952L
sbag1
(g2
g3
Ntp242
Rp243
(dp244
g7
L11457157452030541824L
sbag1
(g2
g3
Ntp245
Rp246
(dp247
g7
L11601272640106397696L
sbag1
(g2
g3
Ntp248
Rp249
(dp250
g7
L11745387828182253568L
sbag1
(g2
g3
Ntp251
Rp252
(dp253
g7
L11889503016258109440L
sbag1
(g2
g3
Ntp254
Rp255
(dp256
g7
L12033618204333965312L
sbag1
(g2
g3
Ntp257
Rp258
(dp259
g7
L12177733392409821184L
sbag1
(g2
g3
Ntp260
Rp261
(dp262
g7
L12321848580485677056L
sbag1
(g2
g3
Ntp263
Rp264
(dp265
g7
L12465963768561532928L
sbag1
(g2
g3
Ntp266
Rp267
(dp268
g7
L12610078956637388800L
sbag1
(g2
g3
Ntp269
Rp270
(dp271
g7
L12754194144713244672L
sbag1
(g2
g3
Ntp272
Rp273
(dp274
g7
L12898309332789100544L
sbag1
(g2
g3
Ntp275
Rp276
(dp277
g7
L13042424520864956416L
sbag1
(g2
g3
Ntp278
Rp279
(dp280
g7
L13186539708940812288L
sbag1
(g2
g3
Ntp281
Rp282
(dp283
g7
L13330654897016668160L
sbag1
(g2
g3
Ntp284
Rp285
(dp286
g7
L13474770085092524032L
sbag1
(g2
g3
Ntp287
Rp288
(dp289
g7
L13618885273168379904L
sbag1
(g2
g3
Ntp290
Rp291
(dp292
g7
L13763000461244235776L
sba.