(lp0
ccopy_reg
_reconstructor
p1
(cs2sphere.sphere
CellId
p2
c__builtin__
object
p3
Ntp4
Rp5
(dp6
S'_CellId__id'
p7
L288230376151711744L
sbag1
(g2
g3
Ntp8
Rp9
(dp10
g7
L864691128455135232L
sbag1
(g2
g3
Ntp11
Rp12
(dp13
g7
L1441151880758558720L
sbag1
(g2
g3
Ntp14
Rp15
(dp16
g7
L2017612633061982208L
sbag1
(g2
g3
Ntp17
Rp18
(dp19
g7
L2594073385365405696L
sbag1
(g2
g3
Ntp20
Rp21
(dp22
g7
L3170534137668829184L
sbag1
(g2
g3
Ntp23
Rp24
(dp25
g7
L3746994889972252672L
sbag1
(g2
g3
Ntp26
Rp27
(dp28
g7
L4323455642275676160L
sbag1
(g2
g3
Ntp29
Rp30
(dp31
g7
L4899916394579099648L
sbag1
(g2
g3
Ntp32
Rp33
(dp34
g7
L5476377146882523136L
sbag1
(g2
g3
Ntp35
Rp36
(dp37
g7
L6052837899185946624L
sbag1
(g2
g3
Ntp38
Rp39
(dp40
g7
L6629298651489370112L
sbag1
(g2
g3
Ntp41
Rp42
(dp43
g7
L7205759403792793600L
sbag1
(g2
g3
Ntp44
Rp45
(dp46
g7
L7782220156096217088L
sbag1
(g2
g3
Ntp47
Rp48
(dp49
g7
L8358680908399640576L
sbag1
(g2
g3
Ntp50
Rp51
(dp52
g7
L8935141660703064064L
sbag1
(g2
g3
Ntp53
Rp54
(dp55
g7
L9511602413006487552L
sbag1
(g2
g3
Ntp56
Rp57
(dp58
g7
L10088063165309911040L
sbag1
(g2
g3
Ntp59
Rp60
(dp61
g7
L10664523917613334528L
sbag1
(g2
g3
Ntp62
Rp63
(dp64
g7
L11240984669916758016L
sbag1
(g2
g3
Ntp65
Rp66
(dp67
g7
L11817445422220181504L
sbag1
(g2
g3
Ntp68
Rp69
(dp70
g7
L12393906174523604992L
sbag1
(g2
g3
Ntp71
Rp72
(dp73
g7
L12970366926827028480L
sbag1
(g2
g3
Ntp74
Rp75
(dp76
g7
L13546827679130451968L
sba.